(cnumpy.core.multiarray
_reconstruct
p0
(cnumpy
ndarray
p1
(I0
tp2
S'b'
p3
tp4
Rp5
(I1
(I3
tp6
cnumpy
dtype
p7
(S'f8'
p8
I0
I1
tp9
Rp10
(I3
S'<'
p11
NNNI-1
I-1
I0
tp12
bI00
S'^\xb2\xa0\x17\xe9\xef+?\xe1E6\x96&\xfe\x9e?\x95\t\x9bb\x08\x0b\xb3?'
p13
tp14
bg0
(g1
(I0
tp15
g3
tp16
Rp17
(I1
(I0
tp18
g10
I00
S''
p19
tp20
bI1
g0
(g1
(I0
tp21
g3
tp22
Rp23
(I1
(I3
tp24
g10
I00
S'\xb9\xa9gX0"\xb3@\x86\xd9\xd4\xc5v\x1e\xd8<\xf0\xc7\x8fm\x83<\xf39'
p25
tp26
btp27
.