(cnumpy.core.multiarray
_reconstruct
p0
(cnumpy
ndarray
p1
(I0
tp2
S'b'
p3
tp4
Rp5
(I1
(I3
tp6
cnumpy
dtype
p7
(S'f8'
p8
I0
I1
tp9
Rp10
(I3
S'<'
p11
NNNI-1
I-1
I0
tp12
bI00
S'\x0c\xc7h\x00V\xf1@@@\x8a\xb0Am.J\xbf\xb8\xf6VN\xb5S\x7f?'
p13
tp14
bg0
(g1
(I0
tp15
g3
tp16
Rp17
(I1
(I1
tp18
g10
I00
S'\xd5[\xc0.\x91+c@'
p19
tp20
bI3
g0
(g1
(I0
tp21
g3
tp22
Rp23
(I1
(I3
tp24
g10
I00
S'\xdc\xabY\x97\xd6M\xd1@+\x8c1g\x00\xd7\xa0@DJ$\xba\xda\xa4\x18@'
p25
tp26
btp27
.