(lp0
(lp1
(lp2
(lp3
F470.0
aF362.0
aa(lp4
F0.0
aF0.0
aa(lp5
F0.0
aF0.0
aa(lp6
F0.0
aF0.0
aaa(lp7
(lp8
F976.0
aF356.0
aa(lp9
F0.0
aF0.0
aa(lp10
F0.0
aF0.0
aa(lp11
F0.0
aF0.0
aaaa(lp12
g2
a(lp13
(lp14
F976.0
aF356.0
aa(lp15
F0.0
aF0.0
aa(lp16
F0.0
aF0.0
aa(lp17
F0.0
aF0.0
aaaa(lp18
(lp19
(lp20
F470.0
aF362.0
aa(lp21
F0.0
aF0.0
aa(lp22
F0.0
aF0.0
aa(lp23
F0.0
aF0.0
aaa(lp24
(lp25
F976.0
aF356.0
aa(lp26
F0.0
aF0.0
aa(lp27
F0.0
aF0.0
aa(lp28
F0.0
aF0.0
aaaa(lp29
(lp30
(lp31
F470.0
aF362.0
aa(lp32
F0.0
aF0.0
aa(lp33
F0.0
aF0.0
aa(lp34
F0.0
aF0.0
aaag24
aa(lp35
g30
a(lp36
(lp37
F976.0
aF356.0
aa(lp38
F0.0
aF0.0
aa(lp39
F0.0
aF0.0
aa(lp40
F0.0
aF0.0
aaaa(lp41
(lp42
(lp43
F470.0
aF362.0
aa(lp44
F0.0
aF0.0
aa(lp45
F0.0
aF0.0
aa(lp46
F0.0
aF0.0
aaag36
aa(lp47
g42
a(lp48
(lp49
F976.0
aF356.0
aa(lp50
F0.0
aF0.0
aa(lp51
F0.0
aF0.0
aa(lp52
F0.0
aF0.0
aaaa(lp53
(lp54
(lp55
F470.0
aF362.0
aa(lp56
F0.0
aF0.0
aa(lp57
F0.0
aF0.0
aa(lp58
F0.0
aF0.0
aaa(lp59
(lp60
F976.0
aF356.0
aa(lp61
F0.0
aF0.0
aa(lp62
F0.0
aF0.0
aa(lp63
F0.0
aF0.0
aaaa(lp64
g54
a(lp65
(lp66
F976.0
aF356.0
aa(lp67
F0.0
aF0.0
aa(lp68
F0.0
aF0.0
aa(lp69
F0.0
aF0.0
aaaa(lp70
g54
a(lp71
(lp72
F976.0
aF356.0
aa(lp73
F0.0
aF0.0
aa(lp74
F0.0
aF0.0
aa(lp75
F0.0
aF0.0
aaaa(lp76
(lp77
(lp78
F470.0
aF362.0
aa(lp79
F0.0
aF0.0
aa(lp80
F0.0
aF0.0
aa(lp81
F0.0
aF0.0
aaag71
aa(lp82
g77
a(lp83
(lp84
F976.0
aF356.0
aa(lp85
F0.0
aF0.0
aa(lp86
F0.0
aF0.0
aa(lp87
F0.0
aF0.0
aaaa(lp88
(lp89
(lp90
F470.0
aF362.0
aa(lp91
F0.0
aF0.0
aa(lp92
F0.0
aF0.0
aa(lp93
F0.0
aF0.0
aaag83
aa(lp94
g89
a(lp95
(lp96
F976.0
aF356.0
aa(lp97
F0.0
aF0.0
aa(lp98
F0.0
aF0.0
aa(lp99
F0.0
aF0.0
aaaa(lp100
(lp101
(lp102
F470.0
aF363.0
aa(lp103
F0.0
aF0.0
aa(lp104
F0.0
aF0.0
aa(lp105
F0.0
aF0.0
aaa(lp106
(lp107
F976.0
aF356.0
aa(lp108
F0.0
aF0.0
aa(lp109
F0.0
aF0.0
aa(lp110
F0.0
aF0.0
aaaa(lp111
(lp112
(lp113
F470.0
aF363.0
aa(lp114
F0.0
aF0.0
aa(lp115
F0.0
aF0.0
aa(lp116
F0.0
aF0.0
aaag106
aa(lp117
g112
a(lp118
(lp119
F976.0
aF356.0
aa(lp120
F0.0
aF0.0
aa(lp121
F0.0
aF0.0
aa(lp122
F0.0
aF0.0
aaaa(lp123
(lp124
(lp125
F470.0
aF363.0
aa(lp126
F0.0
aF0.0
aa(lp127
F0.0
aF0.0
aa(lp128
F0.0
aF0.0
aaag118
aa(lp129
g124
a(lp130
(lp131
F976.0
aF356.0
aa(lp132
F0.0
aF0.0
aa(lp133
F0.0
aF0.0
aa(lp134
F0.0
aF0.0
aaaa(lp135
(lp136
(lp137
F470.0
aF363.0
aa(lp138
F0.0
aF0.0
aa(lp139
F0.0
aF0.0
aa(lp140
F0.0
aF0.0
aaag130
aa(lp141
g136
a(lp142
(lp143
F976.0
aF356.0
aa(lp144
F0.0
aF0.0
aa(lp145
F0.0
aF0.0
aa(lp146
F0.0
aF0.0
aaaa(lp147
g136
a(lp148
(lp149
F976.0
aF356.0
aa(lp150
F0.0
aF0.0
aa(lp151
F0.0
aF0.0
aa(lp152
F0.0
aF0.0
aaaa(lp153
(lp154
(lp155
F470.0
aF363.0
aa(lp156
F0.0
aF0.0
aa(lp157
F0.0
aF0.0
aa(lp158
F0.0
aF0.0
aaag148
aa(lp159
g154
a(lp160
(lp161
F976.0
aF356.0
aa(lp162
F0.0
aF0.0
aa(lp163
F0.0
aF0.0
aa(lp164
F0.0
aF0.0
aaaa(lp165
(lp166
(lp167
F470.0
aF363.0
aa(lp168
F0.0
aF0.0
aa(lp169
F0.0
aF0.0
aa(lp170
F0.0
aF0.0
aaag160
aa(lp171
(lp172
(lp173
F470.0
aF363.0
aa(lp174
F0.0
aF0.0
aa(lp175
F0.0
aF0.0
aa(lp176
F0.0
aF0.0
aaa(lp177
(lp178
F976.0
aF356.0
aa(lp179
F0.0
aF0.0
aa(lp180
F0.0
aF0.0
aa(lp181
F0.0
aF0.0
aaaa(lp182
g172
a(lp183
(lp184
F976.0
aF356.0
aa(lp185
F0.0
aF0.0
aa(lp186
F0.0
aF0.0
aa(lp187
F0.0
aF0.0
aaaa(lp188
(lp189
(lp190
F471.0
aF363.0
aa(lp191
F0.0
aF0.0
aa(lp192
F0.0
aF0.0
aa(lp193
F0.0
aF0.0
aaag183
aa(lp194
g189
a(lp195
(lp196
F976.0
aF356.0
aa(lp197
F0.0
aF0.0
aa(lp198
F0.0
aF0.0
aa(lp199
F0.0
aF0.0
aaaa(lp200
(lp201
(lp202
F471.0
aF363.0
aa(lp203
F0.0
aF0.0
aa(lp204
F0.0
aF0.0
aa(lp205
F0.0
aF0.0
aaag195
aa(lp206
(lp207
(lp208
F471.0
aF364.0
aa(lp209
F0.0
aF0.0
aa(lp210
F0.0
aF0.0
aa(lp211
F0.0
aF0.0
aaa(lp212
(lp213
F976.0
aF356.0
aa(lp214
F0.0
aF0.0
aa(lp215
F0.0
aF0.0
aa(lp216
F0.0
aF0.0
aaaa(lp217
(lp218
(lp219
F471.0
aF364.0
aa(lp220
F0.0
aF0.0
aa(lp221
F0.0
aF0.0
aa(lp222
F0.0
aF0.0
aaag212
aa(lp223
(lp224
(lp225
F471.0
aF364.0
aa(lp226
F0.0
aF0.0
aa(lp227
F0.0
aF0.0
aa(lp228
F0.0
aF0.0
aaa(lp229
(lp230
F976.0
aF356.0
aa(lp231
F0.0
aF0.0
aa(lp232
F0.0
aF0.0
aa(lp233
F0.0
aF0.0
aaaa(lp234
g224
a(lp235
(lp236
F976.0
aF357.0
aa(lp237
F0.0
aF0.0
aa(lp238
F0.0
aF0.0
aa(lp239
F0.0
aF0.0
aaaa(lp240
(lp241
(lp242
F471.0
aF365.0
aa(lp243
F0.0
aF0.0
aa(lp244
F0.0
aF0.0
aa(lp245
F0.0
aF0.0
aaag235
aa(lp246
g241
a(lp247
(lp248
F976.0
aF358.0
aa(lp249
F0.0
aF0.0
aa(lp250
F0.0
aF0.0
aa(lp251
F0.0
aF0.0
aaaa(lp252
(lp253
(lp254
F471.0
aF366.0
aa(lp255
F0.0
aF0.0
aa(lp256
F0.0
aF0.0
aa(lp257
F0.0
aF0.0
aaag247
aa(lp258
(lp259
(lp260
F471.0
aF366.0
aa(lp261
F0.0
aF0.0
aa(lp262
F0.0
aF0.0
aa(lp263
F0.0
aF0.0
aaa(lp264
(lp265
F976.0
aF360.0
aa(lp266
F0.0
aF0.0
aa(lp267
F0.0
aF0.0
aa(lp268
F0.0
aF0.0
aaaa(lp269
(lp270
(lp271
F471.0
aF367.0
aa(lp272
F0.0
aF0.0
aa(lp273
F0.0
aF0.0
aa(lp274
F0.0
aF0.0
aaag264
aa(lp275
(lp276
(lp277
F472.0
aF367.0
aa(lp278
F0.0
aF0.0
aa(lp279
F0.0
aF0.0
aa(lp280
F0.0
aF0.0
aaa(lp281
(lp282
F977.0
aF361.0
aa(lp283
F0.0
aF0.0
aa(lp284
F0.0
aF0.0
aa(lp285
F0.0
aF0.0
aaaa(lp286
g276
a(lp287
(lp288
F977.0
aF362.0
aa(lp289
F0.0
aF0.0
aa(lp290
F0.0
aF0.0
aa(lp291
F0.0
aF0.0
aaaa(lp292
(lp293
(lp294
F472.0
aF369.0
aa(lp295
F0.0
aF0.0
aa(lp296
F0.0
aF0.0
aa(lp297
F0.0
aF0.0
aaag287
aa(lp298
g293
a(lp299
(lp300
F980.0
aF364.0
aa(lp301
F0.0
aF0.0
aa(lp302
F0.0
aF0.0
aa(lp303
F0.0
aF0.0
aaaa(lp304
(lp305
(lp306
F473.0
aF371.0
aa(lp307
F0.0
aF0.0
aa(lp308
F0.0
aF0.0
aa(lp309
F0.0
aF0.0
aaag299
aa(lp310
(lp311
(lp312
F474.0
aF373.0
aa(lp313
F0.0
aF0.0
aa(lp314
F0.0
aF0.0
aa(lp315
F0.0
aF0.0
aaa(lp316
(lp317
F982.0
aF367.0
aa(lp318
F0.0
aF0.0
aa(lp319
F0.0
aF0.0
aa(lp320
F0.0
aF0.0
aaaa(lp321
(lp322
(lp323
F476.0
aF375.0
aa(lp324
F0.0
aF0.0
aa(lp325
F0.0
aF0.0
aa(lp326
F0.0
aF0.0
aaag316
aa(lp327
(lp328
(lp329
F477.0
aF376.0
aa(lp330
F0.0
aF0.0
aa(lp331
F0.0
aF0.0
aa(lp332
F0.0
aF0.0
aaag316
aa(lp333
g328
a(lp334
(lp335
F984.0
aF372.0
aa(lp336
F0.0
aF0.0
aa(lp337
F0.0
aF0.0
aa(lp338
F0.0
aF0.0
aaaa(lp339
(lp340
(lp341
F479.0
aF379.0
aa(lp342
F0.0
aF0.0
aa(lp343
F0.0
aF0.0
aa(lp344
F0.0
aF0.0
aaag334
aa(lp345
g340
a(lp346
(lp347
F984.0
aF372.0
aa(lp348
F0.0
aF0.0
aa(lp349
F0.0
aF0.0
aa(lp350
F0.0
aF0.0
aaaa(lp351
(lp352
(lp353
F479.0
aF381.0
aa(lp354
F0.0
aF0.0
aa(lp355
F0.0
aF0.0
aa(lp356
F0.0
aF0.0
aaa(lp357
(lp358
F984.0
aF373.0
aa(lp359
F0.0
aF0.0
aa(lp360
F0.0
aF0.0
aa(lp361
F0.0
aF0.0
aaaa(lp362
(lp363
(lp364
F479.0
aF382.0
aa(lp365
F0.0
aF0.0
aa(lp366
F0.0
aF0.0
aa(lp367
F0.0
aF0.0
aaa(lp368
(lp369
F984.0
aF375.0
aa(lp370
F0.0
aF0.0
aa(lp371
F0.0
aF0.0
aa(lp372
F0.0
aF0.0
aaaa(lp373
g363
a(lp374
(lp375
F983.0
aF377.0
aa(lp376
F0.0
aF0.0
aa(lp377
F0.0
aF0.0
aa(lp378
F0.0
aF0.0
aaaa(lp379
(lp380
(lp381
F477.0
aF384.0
aa(lp382
F0.0
aF0.0
aa(lp383
F0.0
aF0.0
aa(lp384
F0.0
aF0.0
aaag374
aa(lp385
g380
a(lp386
(lp387
F979.0
aF379.0
aa(lp388
F0.0
aF0.0
aa(lp389
F0.0
aF0.0
aa(lp390
F0.0
aF0.0
aaaa(lp391
(lp392
(lp393
F472.0
aF385.0
aa(lp394
F0.0
aF0.0
aa(lp395
F0.0
aF0.0
aa(lp396
F0.0
aF0.0
aaa(lp397
(lp398
F976.0
aF380.0
aa(lp399
F0.0
aF0.0
aa(lp400
F0.0
aF0.0
aa(lp401
F0.0
aF0.0
aaaa(lp402
g392
a(lp403
(lp404
F975.0
aF380.0
aa(lp405
F0.0
aF0.0
aa(lp406
F0.0
aF0.0
aa(lp407
F0.0
aF0.0
aaaa(lp408
(lp409
(lp410
F465.0
aF387.0
aa(lp411
F0.0
aF0.0
aa(lp412
F0.0
aF0.0
aa(lp413
F0.0
aF0.0
aaa(lp414
(lp415
F968.0
aF381.0
aa(lp416
F0.0
aF0.0
aa(lp417
F0.0
aF0.0
aa(lp418
F0.0
aF0.0
aaaa(lp419
(lp420
(lp421
F463.0
aF388.0
aa(lp422
F0.0
aF0.0
aa(lp423
F0.0
aF0.0
aa(lp424
F0.0
aF0.0
aaa(lp425
(lp426
F967.0
aF382.0
aa(lp427
F0.0
aF0.0
aa(lp428
F0.0
aF0.0
aa(lp429
F0.0
aF0.0
aaaa(lp430
(lp431
(lp432
F458.0
aF390.0
aa(lp433
F0.0
aF0.0
aa(lp434
F0.0
aF0.0
aa(lp435
F0.0
aF0.0
aaa(lp436
(lp437
F960.0
aF384.0
aa(lp438
F0.0
aF0.0
aa(lp439
F0.0
aF0.0
aa(lp440
F0.0
aF0.0
aaaa(lp441
(lp442
(lp443
F455.0
aF390.0
aa(lp444
F0.0
aF0.0
aa(lp445
F0.0
aF0.0
aa(lp446
F0.0
aF0.0
aaag436
aa(lp447
g442
a(lp448
(lp449
F951.0
aF386.0
aa(lp450
F0.0
aF0.0
aa(lp451
F0.0
aF0.0
aa(lp452
F0.0
aF0.0
aaaa(lp453
(lp454
(lp455
F442.0
aF391.0
aa(lp456
F0.0
aF0.0
aa(lp457
F0.0
aF0.0
aa(lp458
F0.0
aF0.0
aaag448
aa(lp459
g454
a(lp460
(lp461
F936.0
aF386.0
aa(lp462
F0.0
aF0.0
aa(lp463
F0.0
aF0.0
aa(lp464
F0.0
aF0.0
aaaa(lp465
(lp466
(lp467
F424.0
aF388.0
aa(lp468
F0.0
aF0.0
aa(lp469
F0.0
aF0.0
aa(lp470
F0.0
aF0.0
aaa(lp471
(lp472
F929.0
aF385.0
aa(lp473
F0.0
aF0.0
aa(lp474
F0.0
aF0.0
aa(lp475
F0.0
aF0.0
aaaa(lp476
(lp477
(lp478
F416.0
aF387.0
aa(lp479
F0.0
aF0.0
aa(lp480
F0.0
aF0.0
aa(lp481
F0.0
aF0.0
aaa(lp482
(lp483
F922.0
aF383.0
aa(lp484
F0.0
aF0.0
aa(lp485
F0.0
aF0.0
aa(lp486
F0.0
aF0.0
aaaa(lp487
(lp488
(lp489
F410.0
aF384.0
aa(lp490
F0.0
aF0.0
aa(lp491
F0.0
aF0.0
aa(lp492
F0.0
aF0.0
aaa(lp493
(lp494
F914.0
aF382.0
aa(lp495
F0.0
aF0.0
aa(lp496
F0.0
aF0.0
aa(lp497
F0.0
aF0.0
aaaa(lp498
(lp499
(lp500
F403.0
aF383.0
aa(lp501
F0.0
aF0.0
aa(lp502
F0.0
aF0.0
aa(lp503
F0.0
aF0.0
aaag493
aa(lp504
g499
a(lp505
(lp506
F902.0
aF378.0
aa(lp507
F0.0
aF0.0
aa(lp508
F0.0
aF0.0
aa(lp509
F0.0
aF0.0
aaaa(lp510
(lp511
(lp512
F391.0
aF378.0
aa(lp513
F0.0
aF0.0
aa(lp514
F0.0
aF0.0
aa(lp515
F0.0
aF0.0
aaag505
aa(lp516
g511
a(lp517
(lp518
F888.0
aF373.0
aa(lp519
F0.0
aF0.0
aa(lp520
F0.0
aF0.0
aa(lp521
F0.0
aF0.0
aaaa(lp522
(lp523
(lp524
F383.0
aF373.0
aa(lp525
F0.0
aF0.0
aa(lp526
F0.0
aF0.0
aa(lp527
F0.0
aF0.0
aaa(lp528
(lp529
F887.0
aF371.0
aa(lp530
F0.0
aF0.0
aa(lp531
F0.0
aF0.0
aa(lp532
F0.0
aF0.0
aaaa(lp533
(lp534
(lp535
F379.0
aF368.0
aa(lp536
F0.0
aF0.0
aa(lp537
F0.0
aF0.0
aa(lp538
F0.0
aF0.0
aaa(lp539
(lp540
F881.0
aF367.0
aa(lp541
F0.0
aF0.0
aa(lp542
F0.0
aF0.0
aa(lp543
F0.0
aF0.0
aaaa(lp544
g534
a(lp545
(lp546
F880.0
aF364.0
aa(lp547
F0.0
aF0.0
aa(lp548
F0.0
aF0.0
aa(lp549
F0.0
aF0.0
aaaa(lp550
g534
ag545
aa(lp551
(lp552
(lp553
F375.0
aF362.0
aa(lp554
F0.0
aF0.0
aa(lp555
F0.0
aF0.0
aa(lp556
F0.0
aF0.0
aaa(lp557
(lp558
F873.0
aF355.0
aa(lp559
F0.0
aF0.0
aa(lp560
F0.0
aF0.0
aa(lp561
F0.0
aF0.0
aaaa(lp562
(lp563
(lp564
F370.0
aF354.0
aa(lp565
F0.0
aF0.0
aa(lp566
F0.0
aF0.0
aa(lp567
F0.0
aF0.0
aaa(lp568
(lp569
F873.0
aF350.0
aa(lp570
F0.0
aF0.0
aa(lp571
F0.0
aF0.0
aa(lp572
F0.0
aF0.0
aaaa(lp573
g563
a(lp574
(lp575
F872.0
aF348.0
aa(lp576
F0.0
aF0.0
aa(lp577
F0.0
aF0.0
aa(lp578
F0.0
aF0.0
aaaa(lp579
(lp580
(lp581
F369.0
aF346.0
aa(lp582
F0.0
aF0.0
aa(lp583
F0.0
aF0.0
aa(lp584
F0.0
aF0.0
aaa(lp585
(lp586
F872.0
aF342.0
aa(lp587
F0.0
aF0.0
aa(lp588
F0.0
aF0.0
aa(lp589
F0.0
aF0.0
aaaa(lp590
(lp591
(lp592
F369.0
aF343.0
aa(lp593
F0.0
aF0.0
aa(lp594
F0.0
aF0.0
aa(lp595
F0.0
aF0.0
aaa(lp596
(lp597
F872.0
aF339.0
aa(lp598
F0.0
aF0.0
aa(lp599
F0.0
aF0.0
aa(lp600
F0.0
aF0.0
aaaa(lp601
g591
a(lp602
(lp603
F873.0
aF334.0
aa(lp604
F0.0
aF0.0
aa(lp605
F0.0
aF0.0
aa(lp606
F0.0
aF0.0
aaaa(lp607
(lp608
(lp609
F370.0
aF334.0
aa(lp610
F0.0
aF0.0
aa(lp611
F0.0
aF0.0
aa(lp612
F0.0
aF0.0
aaag602
aa(lp613
g608
a(lp614
(lp615
F879.0
aF325.0
aa(lp616
F0.0
aF0.0
aa(lp617
F0.0
aF0.0
aa(lp618
F0.0
aF0.0
aaaa(lp619
(lp620
(lp621
F375.0
aF325.0
aa(lp622
F0.0
aF0.0
aa(lp623
F0.0
aF0.0
aa(lp624
F0.0
aF0.0
aaa(lp625
(lp626
F880.0
aF321.0
aa(lp627
F0.0
aF0.0
aa(lp628
F0.0
aF0.0
aa(lp629
F0.0
aF0.0
aaaa(lp630
g620
a(lp631
(lp632
F882.0
aF316.0
aa(lp633
F0.0
aF0.0
aa(lp634
F0.0
aF0.0
aa(lp635
F0.0
aF0.0
aaaa(lp636
(lp637
(lp638
F378.0
aF317.0
aa(lp639
F0.0
aF0.0
aa(lp640
F0.0
aF0.0
aa(lp641
F0.0
aF0.0
aaa(lp642
(lp643
F886.0
aF313.0
aa(lp644
F0.0
aF0.0
aa(lp645
F0.0
aF0.0
aa(lp646
F0.0
aF0.0
aaaa(lp647
(lp648
(lp649
F382.0
aF312.0
aa(lp650
F0.0
aF0.0
aa(lp651
F0.0
aF0.0
aa(lp652
F0.0
aF0.0
aaag642
aa(lp653
g648
a(lp654
(lp655
F893.0
aF305.0
aa(lp656
F0.0
aF0.0
aa(lp657
F0.0
aF0.0
aa(lp658
F0.0
aF0.0
aaaa(lp659
(lp660
(lp661
F387.0
aF305.0
aa(lp662
F0.0
aF0.0
aa(lp663
F0.0
aF0.0
aa(lp664
F0.0
aF0.0
aaag654
aa(lp665
g660
a(lp666
(lp667
F901.0
aF298.0
aa(lp668
F0.0
aF0.0
aa(lp669
F0.0
aF0.0
aa(lp670
F0.0
aF0.0
aaaa(lp671
(lp672
(lp673
F394.0
aF301.0
aa(lp674
F0.0
aF0.0
aa(lp675
F0.0
aF0.0
aa(lp676
F0.0
aF0.0
aaag666
aa(lp677
(lp678
(lp679
F399.0
aF298.0
aa(lp680
F0.0
aF0.0
aa(lp681
F0.0
aF0.0
aa(lp682
F0.0
aF0.0
aaa(lp683
(lp684
F911.0
aF292.0
aa(lp685
F0.0
aF0.0
aa(lp686
F0.0
aF0.0
aa(lp687
F0.0
aF0.0
aaaa(lp688
(lp689
(lp690
F404.0
aF296.0
aa(lp691
F0.0
aF0.0
aa(lp692
F0.0
aF0.0
aa(lp693
F0.0
aF0.0
aaa(lp694
(lp695
F915.0
aF291.0
aa(lp696
F0.0
aF0.0
aa(lp697
F0.0
aF0.0
aa(lp698
F0.0
aF0.0
aaaa(lp699
(lp700
(lp701
F412.0
aF295.0
aa(lp702
F0.0
aF0.0
aa(lp703
F0.0
aF0.0
aa(lp704
F0.0
aF0.0
aaa(lp705
(lp706
F920.0
aF289.0
aa(lp707
F0.0
aF0.0
aa(lp708
F0.0
aF0.0
aa(lp709
F0.0
aF0.0
aaaa(lp710
g700
a(lp711
(lp712
F927.0
aF288.0
aa(lp713
F0.0
aF0.0
aa(lp714
F0.0
aF0.0
aa(lp715
F0.0
aF0.0
aaaa(lp716
(lp717
(lp718
F423.0
aF292.0
aa(lp719
F0.0
aF0.0
aa(lp720
F0.0
aF0.0
aa(lp721
F0.0
aF0.0
aaag711
aa(lp722
g717
a(lp723
(lp724
F938.0
aF285.0
aa(lp725
F0.0
aF0.0
aa(lp726
F0.0
aF0.0
aa(lp727
F0.0
aF0.0
aaaa(lp728
(lp729
(lp730
F435.0
aF291.0
aa(lp731
F0.0
aF0.0
aa(lp732
F0.0
aF0.0
aa(lp733
F0.0
aF0.0
aaa(lp734
(lp735
F944.0
aF284.0
aa(lp736
F0.0
aF0.0
aa(lp737
F0.0
aF0.0
aa(lp738
F0.0
aF0.0
aaaa(lp739
g729
a(lp740
(lp741
F952.0
aF284.0
aa(lp742
F0.0
aF0.0
aa(lp743
F0.0
aF0.0
aa(lp744
F0.0
aF0.0
aaaa(lp745
(lp746
(lp747
F448.0
aF292.0
aa(lp748
F0.0
aF0.0
aa(lp749
F0.0
aF0.0
aa(lp750
F0.0
aF0.0
aaa(lp751
(lp752
F959.0
aF284.0
aa(lp753
F0.0
aF0.0
aa(lp754
F0.0
aF0.0
aa(lp755
F0.0
aF0.0
aaaa(lp756
(lp757
(lp758
F455.0
aF292.0
aa(lp759
F0.0
aF0.0
aa(lp760
F0.0
aF0.0
aa(lp761
F0.0
aF0.0
aaag751
aa(lp762
g757
a(lp763
(lp764
F972.0
aF285.0
aa(lp765
F0.0
aF0.0
aa(lp766
F0.0
aF0.0
aa(lp767
F0.0
aF0.0
aaaa(lp768
(lp769
(lp770
F467.0
aF295.0
aa(lp771
F0.0
aF0.0
aa(lp772
F0.0
aF0.0
aa(lp773
F0.0
aF0.0
aaag763
aa(lp774
g769
a(lp775
(lp776
F989.0
aF288.0
aa(lp777
F0.0
aF0.0
aa(lp778
F0.0
aF0.0
aa(lp779
F0.0
aF0.0
aaaa(lp780
(lp781
(lp782
F480.0
aF296.0
aa(lp783
F0.0
aF0.0
aa(lp784
F0.0
aF0.0
aa(lp785
F0.0
aF0.0
aaa(lp786
(lp787
F995.0
aF289.0
aa(lp788
F0.0
aF0.0
aa(lp789
F0.0
aF0.0
aa(lp790
F0.0
aF0.0
aaaa(lp791
g781
a(lp792
(lp793
F1001.0
aF291.0
aa(lp794
F0.0
aF0.0
aa(lp795
F0.0
aF0.0
aa(lp796
F0.0
aF0.0
aaaa(lp797
(lp798
(lp799
F493.0
aF301.0
aa(lp800
F0.0
aF0.0
aa(lp801
F0.0
aF0.0
aa(lp802
F0.0
aF0.0
aaa(lp803
(lp804
F1008.0
aF292.0
aa(lp805
F0.0
aF0.0
aa(lp806
F0.0
aF0.0
aa(lp807
F0.0
aF0.0
aaaa(lp808
(lp809
(lp810
F498.0
aF303.0
aa(lp811
F0.0
aF0.0
aa(lp812
F0.0
aF0.0
aa(lp813
F0.0
aF0.0
aaag803
aa(lp814
g809
a(lp815
(lp816
F1016.0
aF296.0
aa(lp817
F0.0
aF0.0
aa(lp818
F0.0
aF0.0
aa(lp819
F0.0
aF0.0
aaaa(lp820
(lp821
(lp822
F504.0
aF305.0
aa(lp823
F0.0
aF0.0
aa(lp824
F0.0
aF0.0
aa(lp825
F0.0
aF0.0
aaag815
aa(lp826
g821
a(lp827
(lp828
F1016.0
aF296.0
aa(lp829
F0.0
aF0.0
aa(lp830
F0.0
aF0.0
aa(lp831
F0.0
aF0.0
aaaa(lp832
(lp833
(lp834
F521.0
aF316.0
aa(lp835
F0.0
aF0.0
aa(lp836
F0.0
aF0.0
aa(lp837
F0.0
aF0.0
aaa(lp838
(lp839
F1016.0
aF296.0
aa(lp840
F0.0
aF0.0
aa(lp841
F0.0
aF0.0
aa(lp842
F0.0
aF0.0
aaaa(lp843
g833
a(lp844
(lp845
F1016.0
aF296.0
aa(lp846
F0.0
aF0.0
aa(lp847
F0.0
aF0.0
aa(lp848
F0.0
aF0.0
aaaa(lp849
(lp850
(lp851
F533.0
aF324.0
aa(lp852
F0.0
aF0.0
aa(lp853
F0.0
aF0.0
aa(lp854
F0.0
aF0.0
aaa(lp855
(lp856
F1016.0
aF296.0
aa(lp857
F0.0
aF0.0
aa(lp858
F0.0
aF0.0
aa(lp859
F0.0
aF0.0
aaaa(lp860
(lp861
(lp862
F537.0
aF328.0
aa(lp863
F0.0
aF0.0
aa(lp864
F0.0
aF0.0
aa(lp865
F0.0
aF0.0
aaag855
aa(lp866
g861
a(lp867
(lp868
F1016.0
aF296.0
aa(lp869
F0.0
aF0.0
aa(lp870
F0.0
aF0.0
aa(lp871
F0.0
aF0.0
aaaa(lp872
(lp873
(lp874
F544.0
aF337.0
aa(lp875
F0.0
aF0.0
aa(lp876
F0.0
aF0.0
aa(lp877
F0.0
aF0.0
aaag867
aa(lp878
g873
a(lp879
(lp880
F1016.0
aF296.0
aa(lp881
F0.0
aF0.0
aa(lp882
F0.0
aF0.0
aa(lp883
F0.0
aF0.0
aaaa(lp884
(lp885
(lp886
F550.0
aF347.0
aa(lp887
F0.0
aF0.0
aa(lp888
F0.0
aF0.0
aa(lp889
F0.0
aF0.0
aaag879
aa(lp890
g885
a(lp891
(lp892
F1016.0
aF296.0
aa(lp893
F0.0
aF0.0
aa(lp894
F0.0
aF0.0
aa(lp895
F0.0
aF0.0
aaaa(lp896
(lp897
(lp898
F552.0
aF360.0
aa(lp899
F0.0
aF0.0
aa(lp900
F0.0
aF0.0
aa(lp901
F0.0
aF0.0
aaa(lp902
(lp903
F1016.0
aF296.0
aa(lp904
F0.0
aF0.0
aa(lp905
F0.0
aF0.0
aa(lp906
F0.0
aF0.0
aaaa(lp907
(lp908
(lp909
F552.0
aF365.0
aa(lp910
F0.0
aF0.0
aa(lp911
F0.0
aF0.0
aa(lp912
F0.0
aF0.0
aaa(lp913
(lp914
F1016.0
aF296.0
aa(lp915
F0.0
aF0.0
aa(lp916
F0.0
aF0.0
aa(lp917
F0.0
aF0.0
aaaa(lp918
g908
a(lp919
(lp920
F1016.0
aF296.0
aa(lp921
F0.0
aF0.0
aa(lp922
F0.0
aF0.0
aa(lp923
F0.0
aF0.0
aaaa(lp924
(lp925
(lp926
F551.0
aF375.0
aa(lp927
F0.0
aF0.0
aa(lp928
F0.0
aF0.0
aa(lp929
F0.0
aF0.0
aaag919
aa(lp930
g925
a(lp931
(lp932
F1016.0
aF296.0
aa(lp933
F0.0
aF0.0
aa(lp934
F0.0
aF0.0
aa(lp935
F0.0
aF0.0
aaaa(lp936
(lp937
(lp938
F548.0
aF384.0
aa(lp939
F0.0
aF0.0
aa(lp940
F0.0
aF0.0
aa(lp941
F0.0
aF0.0
aaa(lp942
(lp943
F1016.0
aF296.0
aa(lp944
F0.0
aF0.0
aa(lp945
F0.0
aF0.0
aa(lp946
F0.0
aF0.0
aaaa(lp947
(lp948
(lp949
F544.0
aF388.0
aa(lp950
F0.0
aF0.0
aa(lp951
F0.0
aF0.0
aa(lp952
F0.0
aF0.0
aaa(lp953
(lp954
F1016.0
aF296.0
aa(lp955
F0.0
aF0.0
aa(lp956
F0.0
aF0.0
aa(lp957
F0.0
aF0.0
aaaa(lp958
g948
a(lp959
(lp960
F1016.0
aF296.0
aa(lp961
F0.0
aF0.0
aa(lp962
F0.0
aF0.0
aa(lp963
F0.0
aF0.0
aaaa(lp964
(lp965
(lp966
F538.0
aF396.0
aa(lp967
F0.0
aF0.0
aa(lp968
F0.0
aF0.0
aa(lp969
F0.0
aF0.0
aaag959
aa(lp970
g965
a(lp971
(lp972
F1016.0
aF296.0
aa(lp973
F0.0
aF0.0
aa(lp974
F0.0
aF0.0
aa(lp975
F0.0
aF0.0
aaaa(lp976
(lp977
(lp978
F530.0
aF402.0
aa(lp979
F0.0
aF0.0
aa(lp980
F0.0
aF0.0
aa(lp981
F0.0
aF0.0
aaag971
aa(lp982
g977
a(lp983
(lp984
F1016.0
aF296.0
aa(lp985
F0.0
aF0.0
aa(lp986
F0.0
aF0.0
aa(lp987
F0.0
aF0.0
aaaa(lp988
(lp989
(lp990
F527.0
aF406.0
aa(lp991
F0.0
aF0.0
aa(lp992
F0.0
aF0.0
aa(lp993
F0.0
aF0.0
aaa(lp994
(lp995
F1016.0
aF296.0
aa(lp996
F0.0
aF0.0
aa(lp997
F0.0
aF0.0
aa(lp998
F0.0
aF0.0
aaaa(lp999
(lp1000
(lp1001
F517.0
aF411.0
aa(lp1002
F0.0
aF0.0
aa(lp1003
F0.0
aF0.0
aa(lp1004
F0.0
aF0.0
aaag994
aa(lp1005
g1000
a(lp1006
(lp1007
F1016.0
aF296.0
aa(lp1008
F0.0
aF0.0
aa(lp1009
F0.0
aF0.0
aa(lp1010
F0.0
aF0.0
aaaa(lp1011
(lp1012
(lp1013
F517.0
aF411.0
aa(lp1014
F0.0
aF0.0
aa(lp1015
F0.0
aF0.0
aa(lp1016
F0.0
aF0.0
aaag1006
aa(lp1017
(lp1018
(lp1019
F504.0
aF416.0
aa(lp1020
F0.0
aF0.0
aa(lp1021
F0.0
aF0.0
aa(lp1022
F0.0
aF0.0
aaa(lp1023
(lp1024
F1000.0
aF412.0
aa(lp1025
F0.0
aF0.0
aa(lp1026
F0.0
aF0.0
aa(lp1027
F0.0
aF0.0
aaaa(lp1028
(lp1029
(lp1030
F491.0
aF418.0
aa(lp1031
F0.0
aF0.0
aa(lp1032
F0.0
aF0.0
aa(lp1033
F0.0
aF0.0
aaag1023
aa(lp1034
g1029
a(lp1035
(lp1036
F984.0
aF414.0
aa(lp1037
F0.0
aF0.0
aa(lp1038
F0.0
aF0.0
aa(lp1039
F0.0
aF0.0
aaaa(lp1040
(lp1041
(lp1042
F479.0
aF421.0
aa(lp1043
F0.0
aF0.0
aa(lp1044
F0.0
aF0.0
aa(lp1045
F0.0
aF0.0
aaa(lp1046
(lp1047
F978.0
aF416.0
aa(lp1048
F0.0
aF0.0
aa(lp1049
F0.0
aF0.0
aa(lp1050
F0.0
aF0.0
aaaa(lp1051
g1041
ag1046
aa(lp1052
g1041
a(lp1053
(lp1054
F967.0
aF416.0
aa(lp1055
F0.0
aF0.0
aa(lp1056
F0.0
aF0.0
aa(lp1057
F0.0
aF0.0
aaaa(lp1058
(lp1059
(lp1060
F463.0
aF421.0
aa(lp1061
F0.0
aF0.0
aa(lp1062
F0.0
aF0.0
aa(lp1063
F0.0
aF0.0
aaag1053
aa(lp1064
g1059
a(lp1065
(lp1066
F959.0
aF415.0
aa(lp1067
F0.0
aF0.0
aa(lp1068
F0.0
aF0.0
aa(lp1069
F0.0
aF0.0
aaaa(lp1070
(lp1071
(lp1072
F456.0
aF419.0
aa(lp1073
F0.0
aF0.0
aa(lp1074
F0.0
aF0.0
aa(lp1075
F0.0
aF0.0
aaag1065
aa(lp1076
g1071
a(lp1077
(lp1078
F952.0
aF412.0
aa(lp1079
F0.0
aF0.0
aa(lp1080
F0.0
aF0.0
aa(lp1081
F0.0
aF0.0
aaaa(lp1082
(lp1083
(lp1084
F450.0
aF415.0
aa(lp1085
F0.0
aF0.0
aa(lp1086
F0.0
aF0.0
aa(lp1087
F0.0
aF0.0
aaag1077
aa(lp1088
g1083
a(lp1089
(lp1090
F951.0
aF411.0
aa(lp1091
F0.0
aF0.0
aa(lp1092
F0.0
aF0.0
aa(lp1093
F0.0
aF0.0
aaaa(lp1094
(lp1095
(lp1096
F449.0
aF414.0
aa(lp1097
F0.0
aF0.0
aa(lp1098
F0.0
aF0.0
aa(lp1099
F0.0
aF0.0
aaa(lp1100
(lp1101
F951.0
aF408.0
aa(lp1102
F0.0
aF0.0
aa(lp1103
F0.0
aF0.0
aa(lp1104
F0.0
aF0.0
aaaa(lp1105
(lp1106
(lp1107
F451.0
aF408.0
aa(lp1108
F0.0
aF0.0
aa(lp1109
F0.0
aF0.0
aa(lp1110
F0.0
aF0.0
aaag1100
aa(lp1111
g1106
a(lp1112
(lp1113
F952.0
aF404.0
aa(lp1114
F0.0
aF0.0
aa(lp1115
F0.0
aF0.0
aa(lp1116
F0.0
aF0.0
aaaa(lp1117
(lp1118
(lp1119
F455.0
aF406.0
aa(lp1120
F0.0
aF0.0
aa(lp1121
F0.0
aF0.0
aa(lp1122
F0.0
aF0.0
aaag1112
aa(lp1123
g1118
a(lp1124
(lp1125
F958.0
aF399.0
aa(lp1126
F0.0
aF0.0
aa(lp1127
F0.0
aF0.0
aa(lp1128
F0.0
aF0.0
aaaa(lp1129
(lp1130
(lp1131
F457.0
aF403.0
aa(lp1132
F0.0
aF0.0
aa(lp1133
F0.0
aF0.0
aa(lp1134
F0.0
aF0.0
aaa(lp1135
(lp1136
F960.0
aF396.0
aa(lp1137
F0.0
aF0.0
aa(lp1138
F0.0
aF0.0
aa(lp1139
F0.0
aF0.0
aaaa(lp1140
(lp1141
(lp1142
F464.0
aF399.0
aa(lp1143
F0.0
aF0.0
aa(lp1144
F0.0
aF0.0
aa(lp1145
F0.0
aF0.0
aaag1135
aa(lp1146
g1141
a(lp1147
(lp1148
F968.0
aF393.0
aa(lp1149
F0.0
aF0.0
aa(lp1150
F0.0
aF0.0
aa(lp1151
F0.0
aF0.0
aaaa(lp1152
(lp1153
(lp1154
F471.0
aF393.0
aa(lp1155
F0.0
aF0.0
aa(lp1156
F0.0
aF0.0
aa(lp1157
F0.0
aF0.0
aaag1147
aa(lp1158
g1153
a(lp1159
(lp1160
F975.0
aF387.0
aa(lp1161
F0.0
aF0.0
aa(lp1162
F0.0
aF0.0
aa(lp1163
F0.0
aF0.0
aaaa(lp1164
(lp1165
(lp1166
F474.0
aF389.0
aa(lp1167
F0.0
aF0.0
aa(lp1168
F0.0
aF0.0
aa(lp1169
F0.0
aF0.0
aaag1159
aa(lp1170
g1165
a(lp1171
(lp1172
F980.0
aF381.0
aa(lp1173
F0.0
aF0.0
aa(lp1174
F0.0
aF0.0
aa(lp1175
F0.0
aF0.0
aaaa(lp1176
(lp1177
(lp1178
F477.0
aF385.0
aa(lp1179
F0.0
aF0.0
aa(lp1180
F0.0
aF0.0
aa(lp1181
F0.0
aF0.0
aaa(lp1182
(lp1183
F983.0
aF379.0
aa(lp1184
F0.0
aF0.0
aa(lp1185
F0.0
aF0.0
aa(lp1186
F0.0
aF0.0
aaaa(lp1187
(lp1188
(lp1189
F480.0
aF381.0
aa(lp1190
F0.0
aF0.0
aa(lp1191
F0.0
aF0.0
aa(lp1192
F0.0
aF0.0
aaag1182
aa(lp1193
g1188
a(lp1194
(lp1195
F988.0
aF373.0
aa(lp1196
F0.0
aF0.0
aa(lp1197
F0.0
aF0.0
aa(lp1198
F0.0
aF0.0
aaaa(lp1199
(lp1200
(lp1201
F484.0
aF377.0
aa(lp1202
F0.0
aF0.0
aa(lp1203
F0.0
aF0.0
aa(lp1204
F0.0
aF0.0
aaag1194
aa(lp1205
(lp1206
(lp1207
F487.0
aF376.0
aa(lp1208
F0.0
aF0.0
aa(lp1209
F0.0
aF0.0
aa(lp1210
F0.0
aF0.0
aaa(lp1211
(lp1212
F998.0
aF367.0
aa(lp1213
F0.0
aF0.0
aa(lp1214
F0.0
aF0.0
aa(lp1215
F0.0
aF0.0
aaaa(lp1216
(lp1217
(lp1218
F490.0
aF375.0
aa(lp1219
F0.0
aF0.0
aa(lp1220
F0.0
aF0.0
aa(lp1221
F0.0
aF0.0
aaag1211
aa(lp1222
(lp1223
(lp1224
F495.0
aF372.0
aa(lp1225
F0.0
aF0.0
aa(lp1226
F0.0
aF0.0
aa(lp1227
F0.0
aF0.0
aaag1211
aa(lp1228
g1223
a(lp1229
(lp1230
F1008.0
aF362.0
aa(lp1231
F0.0
aF0.0
aa(lp1232
F0.0
aF0.0
aa(lp1233
F0.0
aF0.0
aaaa(lp1234
(lp1235
(lp1236
F503.0
aF369.0
aa(lp1237
F0.0
aF0.0
aa(lp1238
F0.0
aF0.0
aa(lp1239
F0.0
aF0.0
aaag1229
aa(lp1240
(lp1241
(lp1242
F507.0
aF368.0
aa(lp1243
F0.0
aF0.0
aa(lp1244
F0.0
aF0.0
aa(lp1245
F0.0
aF0.0
aaa(lp1246
(lp1247
F1016.0
aF358.0
aa(lp1248
F0.0
aF0.0
aa(lp1249
F0.0
aF0.0
aa(lp1250
F0.0
aF0.0
aaaa(lp1251
(lp1252
(lp1253
F507.0
aF368.0
aa(lp1254
F0.0
aF0.0
aa(lp1255
F0.0
aF0.0
aa(lp1256
F0.0
aF0.0
aaag1246
aa(lp1257
(lp1258
(lp1259
F513.0
aF366.0
aa(lp1260
F0.0
aF0.0
aa(lp1261
F0.0
aF0.0
aa(lp1262
F0.0
aF0.0
aaa(lp1263
(lp1264
F1016.0
aF360.0
aa(lp1265
F0.0
aF0.0
aa(lp1266
F0.0
aF0.0
aa(lp1267
F0.0
aF0.0
aaaa(lp1268
g1258
a(lp1269
(lp1270
F1016.0
aF360.0
aa(lp1271
F0.0
aF0.0
aa(lp1272
F0.0
aF0.0
aa(lp1273
F0.0
aF0.0
aaaa(lp1274
(lp1275
(lp1276
F520.0
aF364.0
aa(lp1277
F0.0
aF0.0
aa(lp1278
F0.0
aF0.0
aa(lp1279
F0.0
aF0.0
aaag1269
aa(lp1280
g1275
a(lp1281
(lp1282
F1016.0
aF360.0
aa(lp1283
F0.0
aF0.0
aa(lp1284
F0.0
aF0.0
aa(lp1285
F0.0
aF0.0
aaaa(lp1286
(lp1287
(lp1288
F527.0
aF362.0
aa(lp1289
F0.0
aF0.0
aa(lp1290
F0.0
aF0.0
aa(lp1291
F0.0
aF0.0
aaag1281
aa(lp1292
(lp1293
(lp1294
F528.0
aF362.0
aa(lp1295
F0.0
aF0.0
aa(lp1296
F0.0
aF0.0
aa(lp1297
F0.0
aF0.0
aaa(lp1298
(lp1299
F1016.0
aF360.0
aa(lp1300
F0.0
aF0.0
aa(lp1301
F0.0
aF0.0
aa(lp1302
F0.0
aF0.0
aaaa(lp1303
(lp1304
(lp1305
F530.0
aF361.0
aa(lp1306
F0.0
aF0.0
aa(lp1307
F0.0
aF0.0
aa(lp1308
F0.0
aF0.0
aaag1298
aa(lp1309
(lp1310
(lp1311
F532.0
aF361.0
aa(lp1312
F0.0
aF0.0
aa(lp1313
F0.0
aF0.0
aa(lp1314
F0.0
aF0.0
aaa(lp1315
(lp1316
F1016.0
aF360.0
aa(lp1317
F0.0
aF0.0
aa(lp1318
F0.0
aF0.0
aa(lp1319
F0.0
aF0.0
aaaa(lp1320
g1310
a(lp1321
(lp1322
F1016.0
aF360.0
aa(lp1323
F0.0
aF0.0
aa(lp1324
F0.0
aF0.0
aa(lp1325
F0.0
aF0.0
aaaa(lp1326
(lp1327
(lp1328
F533.0
aF360.0
aa(lp1329
F0.0
aF0.0
aa(lp1330
F0.0
aF0.0
aa(lp1331
F0.0
aF0.0
aaag1321
aa(lp1332
(lp1333
(lp1334
F532.0
aF360.0
aa(lp1335
F0.0
aF0.0
aa(lp1336
F0.0
aF0.0
aa(lp1337
F0.0
aF0.0
aaa(lp1338
(lp1339
F1016.0
aF360.0
aa(lp1340
F0.0
aF0.0
aa(lp1341
F0.0
aF0.0
aa(lp1342
F0.0
aF0.0
aaaa(lp1343
(lp1344
(lp1345
F530.0
aF360.0
aa(lp1346
F0.0
aF0.0
aa(lp1347
F0.0
aF0.0
aa(lp1348
F0.0
aF0.0
aaag1338
aa(lp1349
(lp1350
(lp1351
F530.0
aF359.0
aa(lp1352
F0.0
aF0.0
aa(lp1353
F0.0
aF0.0
aa(lp1354
F0.0
aF0.0
aaa(lp1355
(lp1356
F1016.0
aF360.0
aa(lp1357
F0.0
aF0.0
aa(lp1358
F0.0
aF0.0
aa(lp1359
F0.0
aF0.0
aaaa(lp1360
g1350
a(lp1361
(lp1362
F1016.0
aF360.0
aa(lp1363
F0.0
aF0.0
aa(lp1364
F0.0
aF0.0
aa(lp1365
F0.0
aF0.0
aaaa(lp1366
(lp1367
(lp1368
F529.0
aF359.0
aa(lp1369
F0.0
aF0.0
aa(lp1370
F0.0
aF0.0
aa(lp1371
F0.0
aF0.0
aaag1361
aa(lp1372
g1367
a(lp1373
(lp1374
F1016.0
aF360.0
aa(lp1375
F0.0
aF0.0
aa(lp1376
F0.0
aF0.0
aa(lp1377
F0.0
aF0.0
aaaa(lp1378
(lp1379
(lp1380
F529.0
aF359.0
aa(lp1381
F0.0
aF0.0
aa(lp1382
F0.0
aF0.0
aa(lp1383
F0.0
aF0.0
aaa(lp1384
(lp1385
F1016.0
aF360.0
aa(lp1386
F0.0
aF0.0
aa(lp1387
F0.0
aF0.0
aa(lp1388
F0.0
aF0.0
aaaa(lp1389
g1379
a(lp1390
(lp1391
F1016.0
aF360.0
aa(lp1392
F0.0
aF0.0
aa(lp1393
F0.0
aF0.0
aa(lp1394
F0.0
aF0.0
aaaa(lp1395
(lp1396
(lp1397
F528.0
aF358.0
aa(lp1398
F0.0
aF0.0
aa(lp1399
F0.0
aF0.0
aa(lp1400
F0.0
aF0.0
aaag1390
aa(lp1401
(lp1402
(lp1403
F527.0
aF358.0
aa(lp1404
F0.0
aF0.0
aa(lp1405
F0.0
aF0.0
aa(lp1406
F0.0
aF0.0
aaa(lp1407
(lp1408
F1016.0
aF360.0
aa(lp1409
F0.0
aF0.0
aa(lp1410
F0.0
aF0.0
aa(lp1411
F0.0
aF0.0
aaaa(lp1412
g1402
a(lp1413
(lp1414
F1016.0
aF360.0
aa(lp1415
F0.0
aF0.0
aa(lp1416
F0.0
aF0.0
aa(lp1417
F0.0
aF0.0
aaaa(lp1418
(lp1419
(lp1420
F523.0
aF358.0
aa(lp1421
F0.0
aF0.0
aa(lp1422
F0.0
aF0.0
aa(lp1423
F0.0
aF0.0
aaag1413
aa(lp1424
g1419
a(lp1425
(lp1426
F1016.0
aF360.0
aa(lp1427
F0.0
aF0.0
aa(lp1428
F0.0
aF0.0
aa(lp1429
F0.0
aF0.0
aaaa(lp1430
(lp1431
(lp1432
F520.0
aF356.0
aa(lp1433
F0.0
aF0.0
aa(lp1434
F0.0
aF0.0
aa(lp1435
F0.0
aF0.0
aaa(lp1436
(lp1437
F1016.0
aF360.0
aa(lp1438
F0.0
aF0.0
aa(lp1439
F0.0
aF0.0
aa(lp1440
F0.0
aF0.0
aaaa(lp1441
(lp1442
(lp1443
F519.0
aF356.0
aa(lp1444
F0.0
aF0.0
aa(lp1445
F0.0
aF0.0
aa(lp1446
F0.0
aF0.0
aaa(lp1447
(lp1448
F1016.0
aF360.0
aa(lp1449
F0.0
aF0.0
aa(lp1450
F0.0
aF0.0
aa(lp1451
F0.0
aF0.0
aaaa(lp1452
(lp1453
(lp1454
F518.0
aF356.0
aa(lp1455
F0.0
aF0.0
aa(lp1456
F0.0
aF0.0
aa(lp1457
F0.0
aF0.0
aaa(lp1458
(lp1459
F1016.0
aF360.0
aa(lp1460
F0.0
aF0.0
aa(lp1461
F0.0
aF0.0
aa(lp1462
F0.0
aF0.0
aaaa(lp1463
(lp1464
(lp1465
F518.0
aF357.0
aa(lp1466
F0.0
aF0.0
aa(lp1467
F0.0
aF0.0
aa(lp1468
F0.0
aF0.0
aaag1458
aa(lp1469
g1464
a(lp1470
(lp1471
F1016.0
aF360.0
aa(lp1472
F0.0
aF0.0
aa(lp1473
F0.0
aF0.0
aa(lp1474
F0.0
aF0.0
aaaa(lp1475
(lp1476
(lp1477
F516.0
aF358.0
aa(lp1478
F0.0
aF0.0
aa(lp1479
F0.0
aF0.0
aa(lp1480
F0.0
aF0.0
aaa(lp1481
(lp1482
F1016.0
aF360.0
aa(lp1483
F0.0
aF0.0
aa(lp1484
F0.0
aF0.0
aa(lp1485
F0.0
aF0.0
aaaa(lp1486
g1476
a(lp1487
(lp1488
F1016.0
aF360.0
aa(lp1489
F0.0
aF0.0
aa(lp1490
F0.0
aF0.0
aa(lp1491
F0.0
aF0.0
aaaa(lp1492
g1476
ag1487
aa(lp1493
(lp1494
(lp1495
F516.0
aF358.0
aa(lp1496
F0.0
aF0.0
aa(lp1497
F0.0
aF0.0
aa(lp1498
F0.0
aF0.0
aaa(lp1499
(lp1500
F1016.0
aF360.0
aa(lp1501
F0.0
aF0.0
aa(lp1502
F0.0
aF0.0
aa(lp1503
F0.0
aF0.0
aaaa(lp1504
g1494
a(lp1505
(lp1506
F1016.0
aF360.0
aa(lp1507
F0.0
aF0.0
aa(lp1508
F0.0
aF0.0
aa(lp1509
F0.0
aF0.0
aaaa(lp1510
(lp1511
(lp1512
F516.0
aF359.0
aa(lp1513
F0.0
aF0.0
aa(lp1514
F0.0
aF0.0
aa(lp1515
F0.0
aF0.0
aaag1505
aa(lp1516
g1511
a(lp1517
(lp1518
F1016.0
aF360.0
aa(lp1519
F0.0
aF0.0
aa(lp1520
F0.0
aF0.0
aa(lp1521
F0.0
aF0.0
aaaa(lp1522
(lp1523
(lp1524
F517.0
aF359.0
aa(lp1525
F0.0
aF0.0
aa(lp1526
F0.0
aF0.0
aa(lp1527
F0.0
aF0.0
aaa(lp1528
(lp1529
F1016.0
aF360.0
aa(lp1530
F0.0
aF0.0
aa(lp1531
F0.0
aF0.0
aa(lp1532
F0.0
aF0.0
aaaa(lp1533
(lp1534
(lp1535
F517.0
aF359.0
aa(lp1536
F0.0
aF0.0
aa(lp1537
F0.0
aF0.0
aa(lp1538
F0.0
aF0.0
aaa(lp1539
(lp1540
F1016.0
aF360.0
aa(lp1541
F0.0
aF0.0
aa(lp1542
F0.0
aF0.0
aa(lp1543
F0.0
aF0.0
aaaa(lp1544
(lp1545
(lp1546
F517.0
aF359.0
aa(lp1547
F0.0
aF0.0
aa(lp1548
F0.0
aF0.0
aa(lp1549
F0.0
aF0.0
aaa(lp1550
(lp1551
F1016.0
aF360.0
aa(lp1552
F0.0
aF0.0
aa(lp1553
F0.0
aF0.0
aa(lp1554
F0.0
aF0.0
aaaa(lp1555
(lp1556
(lp1557
F517.0
aF359.0
aa(lp1558
F0.0
aF0.0
aa(lp1559
F0.0
aF0.0
aa(lp1560
F0.0
aF0.0
aaag1550
aa(lp1561
g1556
a(lp1562
(lp1563
F1016.0
aF360.0
aa(lp1564
F0.0
aF0.0
aa(lp1565
F0.0
aF0.0
aa(lp1566
F0.0
aF0.0
aaaa(lp1567
(lp1568
(lp1569
F517.0
aF359.0
aa(lp1570
F0.0
aF0.0
aa(lp1571
F0.0
aF0.0
aa(lp1572
F0.0
aF0.0
aaag1562
aa(lp1573
g1568
a(lp1574
(lp1575
F1016.0
aF360.0
aa(lp1576
F0.0
aF0.0
aa(lp1577
F0.0
aF0.0
aa(lp1578
F0.0
aF0.0
aaaa(lp1579
(lp1580
(lp1581
F517.0
aF359.0
aa(lp1582
F0.0
aF0.0
aa(lp1583
F0.0
aF0.0
aa(lp1584
F0.0
aF0.0
aaa(lp1585
(lp1586
F1016.0
aF360.0
aa(lp1587
F0.0
aF0.0
aa(lp1588
F0.0
aF0.0
aa(lp1589
F0.0
aF0.0
aaaa(lp1590
(lp1591
(lp1592
F517.0
aF359.0
aa(lp1593
F0.0
aF0.0
aa(lp1594
F0.0
aF0.0
aa(lp1595
F0.0
aF0.0
aaa(lp1596
(lp1597
F1016.0
aF360.0
aa(lp1598
F0.0
aF0.0
aa(lp1599
F0.0
aF0.0
aa(lp1600
F0.0
aF0.0
aaaa(lp1601
(lp1602
(lp1603
F517.0
aF359.0
aa(lp1604
F0.0
aF0.0
aa(lp1605
F0.0
aF0.0
aa(lp1606
F0.0
aF0.0
aaa(lp1607
(lp1608
F1016.0
aF360.0
aa(lp1609
F0.0
aF0.0
aa(lp1610
F0.0
aF0.0
aa(lp1611
F0.0
aF0.0
aaaa(lp1612
(lp1613
(lp1614
F517.0
aF359.0
aa(lp1615
F0.0
aF0.0
aa(lp1616
F0.0
aF0.0
aa(lp1617
F0.0
aF0.0
aaag1607
aa(lp1618
g1613
a(lp1619
(lp1620
F1016.0
aF360.0
aa(lp1621
F0.0
aF0.0
aa(lp1622
F0.0
aF0.0
aa(lp1623
F0.0
aF0.0
aaaa(lp1624
(lp1625
(lp1626
F517.0
aF359.0
aa(lp1627
F0.0
aF0.0
aa(lp1628
F0.0
aF0.0
aa(lp1629
F0.0
aF0.0
aaag1619
aa(lp1630
g1625
a(lp1631
(lp1632
F1016.0
aF360.0
aa(lp1633
F0.0
aF0.0
aa(lp1634
F0.0
aF0.0
aa(lp1635
F0.0
aF0.0
aaaa(lp1636
(lp1637
(lp1638
F517.0
aF359.0
aa(lp1639
F0.0
aF0.0
aa(lp1640
F0.0
aF0.0
aa(lp1641
F0.0
aF0.0
aaa(lp1642
(lp1643
F1016.0
aF360.0
aa(lp1644
F0.0
aF0.0
aa(lp1645
F0.0
aF0.0
aa(lp1646
F0.0
aF0.0
aaaa(lp1647
g1637
a(lp1648
(lp1649
F1016.0
aF360.0
aa(lp1650
F0.0
aF0.0
aa(lp1651
F0.0
aF0.0
aa(lp1652
F0.0
aF0.0
aaaa(lp1653
(lp1654
(lp1655
F517.0
aF359.0
aa(lp1656
F0.0
aF0.0
aa(lp1657
F0.0
aF0.0
aa(lp1658
F0.0
aF0.0
aaa(lp1659
(lp1660
F1016.0
aF360.0
aa(lp1661
F0.0
aF0.0
aa(lp1662
F0.0
aF0.0
aa(lp1663
F0.0
aF0.0
aaaa(lp1664
(lp1665
(lp1666
F517.0
aF359.0
aa(lp1667
F0.0
aF0.0
aa(lp1668
F0.0
aF0.0
aa(lp1669
F0.0
aF0.0
aaag1659
aa(lp1670
g1665
a(lp1671
(lp1672
F1016.0
aF360.0
aa(lp1673
F0.0
aF0.0
aa(lp1674
F0.0
aF0.0
aa(lp1675
F0.0
aF0.0
aaaa(lp1676
(lp1677
(lp1678
F517.0
aF359.0
aa(lp1679
F0.0
aF0.0
aa(lp1680
F0.0
aF0.0
aa(lp1681
F0.0
aF0.0
aaag1671
aa(lp1682
g1677
a(lp1683
(lp1684
F1016.0
aF360.0
aa(lp1685
F0.0
aF0.0
aa(lp1686
F0.0
aF0.0
aa(lp1687
F0.0
aF0.0
aaaa(lp1688
(lp1689
(lp1690
F517.0
aF359.0
aa(lp1691
F0.0
aF0.0
aa(lp1692
F0.0
aF0.0
aa(lp1693
F0.0
aF0.0
aaag1683
aa(lp1694
g1689
a(lp1695
(lp1696
F1016.0
aF360.0
aa(lp1697
F0.0
aF0.0
aa(lp1698
F0.0
aF0.0
aa(lp1699
F0.0
aF0.0
aaaa(lp1700
(lp1701
(lp1702
F517.0
aF359.0
aa(lp1703
F0.0
aF0.0
aa(lp1704
F0.0
aF0.0
aa(lp1705
F0.0
aF0.0
aaa(lp1706
(lp1707
F1016.0
aF360.0
aa(lp1708
F0.0
aF0.0
aa(lp1709
F0.0
aF0.0
aa(lp1710
F0.0
aF0.0
aaaa(lp1711
(lp1712
(lp1713
F517.0
aF359.0
aa(lp1714
F0.0
aF0.0
aa(lp1715
F0.0
aF0.0
aa(lp1716
F0.0
aF0.0
aaa(lp1717
(lp1718
F1016.0
aF360.0
aa(lp1719
F0.0
aF0.0
aa(lp1720
F0.0
aF0.0
aa(lp1721
F0.0
aF0.0
aaaa(lp1722
g1712
a(lp1723
(lp1724
F1016.0
aF360.0
aa(lp1725
F0.0
aF0.0
aa(lp1726
F0.0
aF0.0
aa(lp1727
F0.0
aF0.0
aaaa(lp1728
(lp1729
(lp1730
F517.0
aF359.0
aa(lp1731
F0.0
aF0.0
aa(lp1732
F0.0
aF0.0
aa(lp1733
F0.0
aF0.0
aaag1723
aa(lp1734
g1729
a(lp1735
(lp1736
F1016.0
aF360.0
aa(lp1737
F0.0
aF0.0
aa(lp1738
F0.0
aF0.0
aa(lp1739
F0.0
aF0.0
aaaa(lp1740
(lp1741
(lp1742
F517.0
aF359.0
aa(lp1743
F0.0
aF0.0
aa(lp1744
F0.0
aF0.0
aa(lp1745
F0.0
aF0.0
aaag1735
aa(lp1746
g1741
a(lp1747
(lp1748
F1016.0
aF360.0
aa(lp1749
F0.0
aF0.0
aa(lp1750
F0.0
aF0.0
aa(lp1751
F0.0
aF0.0
aaaa(lp1752
(lp1753
(lp1754
F517.0
aF359.0
aa(lp1755
F0.0
aF0.0
aa(lp1756
F0.0
aF0.0
aa(lp1757
F0.0
aF0.0
aaa(lp1758
(lp1759
F1016.0
aF360.0
aa(lp1760
F0.0
aF0.0
aa(lp1761
F0.0
aF0.0
aa(lp1762
F0.0
aF0.0
aaaa(lp1763
g1753
a(lp1764
(lp1765
F1016.0
aF360.0
aa(lp1766
F0.0
aF0.0
aa(lp1767
F0.0
aF0.0
aa(lp1768
F0.0
aF0.0
aaaa(lp1769
g1753
a(lp1770
(lp1771
F1016.0
aF360.0
aa(lp1772
F0.0
aF0.0
aa(lp1773
F0.0
aF0.0
aa(lp1774
F0.0
aF0.0
aaaa(lp1775
(lp1776
(lp1777
F517.0
aF359.0
aa(lp1778
F0.0
aF0.0
aa(lp1779
F0.0
aF0.0
aa(lp1780
F0.0
aF0.0
aaag1770
aa(lp1781
g1776
a(lp1782
(lp1783
F1016.0
aF360.0
aa(lp1784
F0.0
aF0.0
aa(lp1785
F0.0
aF0.0
aa(lp1786
F0.0
aF0.0
aaaa(lp1787
(lp1788
(lp1789
F320.0
aF305.0
aa(lp1790
F0.0
aF0.0
aa(lp1791
F0.0
aF0.0
aa(lp1792
F0.0
aF0.0
aaa(lp1793
(lp1794
F827.0
aF303.0
aa(lp1795
F0.0
aF0.0
aa(lp1796
F0.0
aF0.0
aa(lp1797
F0.0
aF0.0
aaaa(lp1798
g1788
a(lp1799
(lp1800
F827.0
aF303.0
aa(lp1801
F0.0
aF0.0
aa(lp1802
F0.0
aF0.0
aa(lp1803
F0.0
aF0.0
aaaa(lp1804
(lp1805
(lp1806
F320.0
aF305.0
aa(lp1807
F0.0
aF0.0
aa(lp1808
F0.0
aF0.0
aa(lp1809
F0.0
aF0.0
aaag1799
aa(lp1810
g1805
a(lp1811
(lp1812
F827.0
aF303.0
aa(lp1813
F0.0
aF0.0
aa(lp1814
F0.0
aF0.0
aa(lp1815
F0.0
aF0.0
aaaa(lp1816
(lp1817
(lp1818
F320.0
aF305.0
aa(lp1819
F0.0
aF0.0
aa(lp1820
F0.0
aF0.0
aa(lp1821
F0.0
aF0.0
aaa(lp1822
(lp1823
F827.0
aF303.0
aa(lp1824
F0.0
aF0.0
aa(lp1825
F0.0
aF0.0
aa(lp1826
F0.0
aF0.0
aaaa(lp1827
(lp1828
(lp1829
F320.0
aF305.0
aa(lp1830
F0.0
aF0.0
aa(lp1831
F0.0
aF0.0
aa(lp1832
F0.0
aF0.0
aaa(lp1833
(lp1834
F827.0
aF303.0
aa(lp1835
F0.0
aF0.0
aa(lp1836
F0.0
aF0.0
aa(lp1837
F0.0
aF0.0
aaaa(lp1838
g1828
a(lp1839
(lp1840
F827.0
aF303.0
aa(lp1841
F0.0
aF0.0
aa(lp1842
F0.0
aF0.0
aa(lp1843
F0.0
aF0.0
aaaa(lp1844
(lp1845
(lp1846
F320.0
aF305.0
aa(lp1847
F0.0
aF0.0
aa(lp1848
F0.0
aF0.0
aa(lp1849
F0.0
aF0.0
aaag1839
aa(lp1850
g1845
a(lp1851
(lp1852
F826.0
aF303.0
aa(lp1853
F0.0
aF0.0
aa(lp1854
F0.0
aF0.0
aa(lp1855
F0.0
aF0.0
aaaa(lp1856
(lp1857
(lp1858
F320.0
aF306.0
aa(lp1859
F0.0
aF0.0
aa(lp1860
F0.0
aF0.0
aa(lp1861
F0.0
aF0.0
aaag1851
aa(lp1862
g1857
a(lp1863
(lp1864
F826.0
aF303.0
aa(lp1865
F0.0
aF0.0
aa(lp1866
F0.0
aF0.0
aa(lp1867
F0.0
aF0.0
aaaa(lp1868
(lp1869
(lp1870
F320.0
aF306.0
aa(lp1871
F0.0
aF0.0
aa(lp1872
F0.0
aF0.0
aa(lp1873
F0.0
aF0.0
aaa(lp1874
(lp1875
F826.0
aF303.0
aa(lp1876
F0.0
aF0.0
aa(lp1877
F0.0
aF0.0
aa(lp1878
F0.0
aF0.0
aaaa(lp1879
(lp1880
(lp1881
F320.0
aF306.0
aa(lp1882
F0.0
aF0.0
aa(lp1883
F0.0
aF0.0
aa(lp1884
F0.0
aF0.0
aaag1874
aa(lp1885
g1880
a(lp1886
(lp1887
F826.0
aF303.0
aa(lp1888
F0.0
aF0.0
aa(lp1889
F0.0
aF0.0
aa(lp1890
F0.0
aF0.0
aaaa(lp1891
(lp1892
(lp1893
F319.0
aF306.0
aa(lp1894
F0.0
aF0.0
aa(lp1895
F0.0
aF0.0
aa(lp1896
F0.0
aF0.0
aaag1886
aa(lp1897
g1892
a(lp1898
(lp1899
F826.0
aF303.0
aa(lp1900
F0.0
aF0.0
aa(lp1901
F0.0
aF0.0
aa(lp1902
F0.0
aF0.0
aaaa(lp1903
(lp1904
(lp1905
F319.0
aF306.0
aa(lp1906
F0.0
aF0.0
aa(lp1907
F0.0
aF0.0
aa(lp1908
F0.0
aF0.0
aaag1898
aa(lp1909
g1904
a(lp1910
(lp1911
F825.0
aF303.0
aa(lp1912
F0.0
aF0.0
aa(lp1913
F0.0
aF0.0
aa(lp1914
F0.0
aF0.0
aaaa(lp1915
(lp1916
(lp1917
F319.0
aF307.0
aa(lp1918
F0.0
aF0.0
aa(lp1919
F0.0
aF0.0
aa(lp1920
F0.0
aF0.0
aaa(lp1921
(lp1922
F825.0
aF304.0
aa(lp1923
F0.0
aF0.0
aa(lp1924
F0.0
aF0.0
aa(lp1925
F0.0
aF0.0
aaaa(lp1926
(lp1927
(lp1928
F319.0
aF307.0
aa(lp1929
F0.0
aF0.0
aa(lp1930
F0.0
aF0.0
aa(lp1931
F0.0
aF0.0
aaag1921
aa(lp1932
g1927
a(lp1933
(lp1934
F824.0
aF305.0
aa(lp1935
F0.0
aF0.0
aa(lp1936
F0.0
aF0.0
aa(lp1937
F0.0
aF0.0
aaaa(lp1938
(lp1939
(lp1940
F318.0
aF308.0
aa(lp1941
F0.0
aF0.0
aa(lp1942
F0.0
aF0.0
aa(lp1943
F0.0
aF0.0
aaag1933
aa(lp1944
g1939
a(lp1945
(lp1946
F822.0
aF305.0
aa(lp1947
F0.0
aF0.0
aa(lp1948
F0.0
aF0.0
aa(lp1949
F0.0
aF0.0
aaaa(lp1950
(lp1951
(lp1952
F312.0
aF308.0
aa(lp1953
F0.0
aF0.0
aa(lp1954
F0.0
aF0.0
aa(lp1955
F0.0
aF0.0
aaag1945
aa(lp1956
g1951
a(lp1957
(lp1958
F819.0
aF304.0
aa(lp1959
F0.0
aF0.0
aa(lp1960
F0.0
aF0.0
aa(lp1961
F0.0
aF0.0
aaaa(lp1962
g1951
a(lp1963
(lp1964
F814.0
aF305.0
aa(lp1965
F0.0
aF0.0
aa(lp1966
F0.0
aF0.0
aa(lp1967
F0.0
aF0.0
aaaa(lp1968
(lp1969
(lp1970
F303.0
aF305.0
aa(lp1971
F0.0
aF0.0
aa(lp1972
F0.0
aF0.0
aa(lp1973
F0.0
aF0.0
aaag1963
aa(lp1974
g1969
a(lp1975
(lp1976
F808.0
aF302.0
aa(lp1977
F0.0
aF0.0
aa(lp1978
F0.0
aF0.0
aa(lp1979
F0.0
aF0.0
aaaa(lp1980
(lp1981
(lp1982
F298.0
aF304.0
aa(lp1983
F0.0
aF0.0
aa(lp1984
F0.0
aF0.0
aa(lp1985
F0.0
aF0.0
aaag1975
aa(lp1986
g1981
a(lp1987
(lp1988
F803.0
aF302.0
aa(lp1989
F0.0
aF0.0
aa(lp1990
F0.0
aF0.0
aa(lp1991
F0.0
aF0.0
aaaa(lp1992
(lp1993
(lp1994
F295.0
aF302.0
aa(lp1995
F0.0
aF0.0
aa(lp1996
F0.0
aF0.0
aa(lp1997
F0.0
aF0.0
aaag1987
aa(lp1998
g1993
a(lp1999
(lp2000
F800.0
aF300.0
aa(lp2001
F0.0
aF0.0
aa(lp2002
F0.0
aF0.0
aa(lp2003
F0.0
aF0.0
aaaa(lp2004
g1993
ag1999
aa(lp2005
(lp2006
(lp2007
F294.0
aF301.0
aa(lp2008
F0.0
aF0.0
aa(lp2009
F0.0
aF0.0
aa(lp2010
F0.0
aF0.0
aaag1999
aa(lp2011
g2006
a(lp2012
(lp2013
F800.0
aF297.0
aa(lp2014
F0.0
aF0.0
aa(lp2015
F0.0
aF0.0
aa(lp2016
F0.0
aF0.0
aaaa(lp2017
(lp2018
(lp2019
F294.0
aF297.0
aa(lp2020
F0.0
aF0.0
aa(lp2021
F0.0
aF0.0
aa(lp2022
F0.0
aF0.0
aaag2012
aa(lp2023
g2018
a(lp2024
(lp2025
F801.0
aF294.0
aa(lp2026
F0.0
aF0.0
aa(lp2027
F0.0
aF0.0
aa(lp2028
F0.0
aF0.0
aaaa(lp2029
(lp2030
(lp2031
F295.0
aF296.0
aa(lp2032
F0.0
aF0.0
aa(lp2033
F0.0
aF0.0
aa(lp2034
F0.0
aF0.0
aaag2024
aa(lp2035
(lp2036
(lp2037
F295.0
aF295.0
aa(lp2038
F0.0
aF0.0
aa(lp2039
F0.0
aF0.0
aa(lp2040
F0.0
aF0.0
aaag2024
aa(lp2041
g2036
a(lp2042
(lp2043
F803.0
aF291.0
aa(lp2044
F0.0
aF0.0
aa(lp2045
F0.0
aF0.0
aa(lp2046
F0.0
aF0.0
aaaa(lp2047
(lp2048
(lp2049
F296.0
aF292.0
aa(lp2050
F0.0
aF0.0
aa(lp2051
F0.0
aF0.0
aa(lp2052
F0.0
aF0.0
aaag2042
aa(lp2053
(lp2054
(lp2055
F297.0
aF290.0
aa(lp2056
F0.0
aF0.0
aa(lp2057
F0.0
aF0.0
aa(lp2058
F0.0
aF0.0
aaa(lp2059
(lp2060
F806.0
aF288.0
aa(lp2061
F0.0
aF0.0
aa(lp2062
F0.0
aF0.0
aa(lp2063
F0.0
aF0.0
aaaa(lp2064
(lp2065
(lp2066
F299.0
aF288.0
aa(lp2067
F0.0
aF0.0
aa(lp2068
F0.0
aF0.0
aa(lp2069
F0.0
aF0.0
aaa(lp2070
(lp2071
F808.0
aF285.0
aa(lp2072
F0.0
aF0.0
aa(lp2073
F0.0
aF0.0
aa(lp2074
F0.0
aF0.0
aaaa(lp2075
(lp2076
(lp2077
F302.0
aF287.0
aa(lp2078
F0.0
aF0.0
aa(lp2079
F0.0
aF0.0
aa(lp2080
F0.0
aF0.0
aaa(lp2081
(lp2082
F813.0
aF284.0
aa(lp2083
F0.0
aF0.0
aa(lp2084
F0.0
aF0.0
aa(lp2085
F0.0
aF0.0
aaaa(lp2086
(lp2087
(lp2088
F306.0
aF286.0
aa(lp2089
F0.0
aF0.0
aa(lp2090
F0.0
aF0.0
aa(lp2091
F0.0
aF0.0
aaag2081
aa(lp2092
g2087
a(lp2093
(lp2094
F818.0
aF281.0
aa(lp2095
F0.0
aF0.0
aa(lp2096
F0.0
aF0.0
aa(lp2097
F0.0
aF0.0
aaaa(lp2098
(lp2099
(lp2100
F311.0
aF284.0
aa(lp2101
F0.0
aF0.0
aa(lp2102
F0.0
aF0.0
aa(lp2103
F0.0
aF0.0
aaa(lp2104
(lp2105
F823.0
aF281.0
aa(lp2106
F0.0
aF0.0
aa(lp2107
F0.0
aF0.0
aa(lp2108
F0.0
aF0.0
aaaa(lp2109
(lp2110
(lp2111
F318.0
aF282.0
aa(lp2112
F0.0
aF0.0
aa(lp2113
F0.0
aF0.0
aa(lp2114
F0.0
aF0.0
aaag2104
aa(lp2115
g2110
a(lp2116
(lp2117
F832.0
aF279.0
aa(lp2118
F0.0
aF0.0
aa(lp2119
F0.0
aF0.0
aa(lp2120
F0.0
aF0.0
aaaa(lp2121
(lp2122
(lp2123
F328.0
aF282.0
aa(lp2124
F0.0
aF0.0
aa(lp2125
F0.0
aF0.0
aa(lp2126
F0.0
aF0.0
aaag2116
aa(lp2127
g2122
a(lp2128
(lp2129
F840.0
aF278.0
aa(lp2130
F0.0
aF0.0
aa(lp2131
F0.0
aF0.0
aa(lp2132
F0.0
aF0.0
aaaa(lp2133
(lp2134
(lp2135
F330.0
aF282.0
aa(lp2136
F0.0
aF0.0
aa(lp2137
F0.0
aF0.0
aa(lp2138
F0.0
aF0.0
aaag2128
aa(lp2139
(lp2140
(lp2141
F336.0
aF283.0
aa(lp2142
F0.0
aF0.0
aa(lp2143
F0.0
aF0.0
aa(lp2144
F0.0
aF0.0
aaag2128
aa(lp2145
g2140
a(lp2146
(lp2147
F856.0
aF281.0
aa(lp2148
F0.0
aF0.0
aa(lp2149
F0.0
aF0.0
aa(lp2150
F0.0
aF0.0
aaaa(lp2151
(lp2152
(lp2153
F354.0
aF288.0
aa(lp2154
F0.0
aF0.0
aa(lp2155
F0.0
aF0.0
aa(lp2156
F0.0
aF0.0
aaag2146
aa(lp2157
g2152
a(lp2158
(lp2159
F869.0
aF285.0
aa(lp2160
F0.0
aF0.0
aa(lp2161
F0.0
aF0.0
aa(lp2162
F0.0
aF0.0
aaaa(lp2163
(lp2164
(lp2165
F360.0
aF289.0
aa(lp2166
F0.0
aF0.0
aa(lp2167
F0.0
aF0.0
aa(lp2168
F0.0
aF0.0
aaag2158
aa(lp2169
(lp2170
(lp2171
F367.0
aF293.0
aa(lp2172
F0.0
aF0.0
aa(lp2173
F0.0
aF0.0
aa(lp2174
F0.0
aF0.0
aaag2158
aa(lp2175
g2170
a(lp2176
(lp2177
F880.0
aF290.0
aa(lp2178
F0.0
aF0.0
aa(lp2179
F0.0
aF0.0
aa(lp2180
F0.0
aF0.0
aaaa(lp2181
(lp2182
(lp2183
F377.0
aF299.0
aa(lp2184
F0.0
aF0.0
aa(lp2185
F0.0
aF0.0
aa(lp2186
F0.0
aF0.0
aaag2176
aa(lp2187
(lp2188
(lp2189
F384.0
aF303.0
aa(lp2190
F0.0
aF0.0
aa(lp2191
F0.0
aF0.0
aa(lp2192
F0.0
aF0.0
aaa(lp2193
(lp2194
F892.0
aF296.0
aa(lp2195
F0.0
aF0.0
aa(lp2196
F0.0
aF0.0
aa(lp2197
F0.0
aF0.0
aaaa(lp2198
(lp2199
(lp2200
F390.0
aF307.0
aa(lp2201
F0.0
aF0.0
aa(lp2202
F0.0
aF0.0
aa(lp2203
F0.0
aF0.0
aaa(lp2204
(lp2205
F899.0
aF302.0
aa(lp2206
F0.0
aF0.0
aa(lp2207
F0.0
aF0.0
aa(lp2208
F0.0
aF0.0
aaaa(lp2209
(lp2210
(lp2211
F393.0
aF311.0
aa(lp2212
F0.0
aF0.0
aa(lp2213
F0.0
aF0.0
aa(lp2214
F0.0
aF0.0
aaa(lp2215
(lp2216
F904.0
aF307.0
aa(lp2217
F0.0
aF0.0
aa(lp2218
F0.0
aF0.0
aa(lp2219
F0.0
aF0.0
aaaa(lp2220
g2210
a(lp2221
(lp2222
F907.0
aF311.0
aa(lp2223
F0.0
aF0.0
aa(lp2224
F0.0
aF0.0
aa(lp2225
F0.0
aF0.0
aaaa(lp2226
(lp2227
(lp2228
F400.0
aF319.0
aa(lp2229
F0.0
aF0.0
aa(lp2230
F0.0
aF0.0
aa(lp2231
F0.0
aF0.0
aaag2221
aa(lp2232
g2227
a(lp2233
(lp2234
F912.0
aF317.0
aa(lp2235
F0.0
aF0.0
aa(lp2236
F0.0
aF0.0
aa(lp2237
F0.0
aF0.0
aaaa(lp2238
(lp2239
(lp2240
F405.0
aF328.0
aa(lp2241
F0.0
aF0.0
aa(lp2242
F0.0
aF0.0
aa(lp2243
F0.0
aF0.0
aaag2233
aa(lp2244
(lp2245
(lp2246
F405.0
aF332.0
aa(lp2247
F0.0
aF0.0
aa(lp2248
F0.0
aF0.0
aa(lp2249
F0.0
aF0.0
aaa(lp2250
(lp2251
F912.0
aF326.0
aa(lp2252
F0.0
aF0.0
aa(lp2253
F0.0
aF0.0
aa(lp2254
F0.0
aF0.0
aaaa(lp2255
(lp2256
(lp2257
F404.0
aF335.0
aa(lp2258
F0.0
aF0.0
aa(lp2259
F0.0
aF0.0
aa(lp2260
F0.0
aF0.0
aaa(lp2261
(lp2262
F912.0
aF331.0
aa(lp2263
F0.0
aF0.0
aa(lp2264
F0.0
aF0.0
aa(lp2265
F0.0
aF0.0
aaaa(lp2266
(lp2267
(lp2268
F400.0
aF339.0
aa(lp2269
F0.0
aF0.0
aa(lp2270
F0.0
aF0.0
aa(lp2271
F0.0
aF0.0
aaa(lp2272
(lp2273
F910.0
aF334.0
aa(lp2274
F0.0
aF0.0
aa(lp2275
F0.0
aF0.0
aa(lp2276
F0.0
aF0.0
aaaa(lp2277
g2267
a(lp2278
(lp2279
F904.0
aF338.0
aa(lp2280
F0.0
aF0.0
aa(lp2281
F0.0
aF0.0
aa(lp2282
F0.0
aF0.0
aaaa(lp2283
(lp2284
(lp2285
F394.0
aF344.0
aa(lp2286
F0.0
aF0.0
aa(lp2287
F0.0
aF0.0
aa(lp2288
F0.0
aF0.0
aaag2278
aa(lp2289
g2284
a(lp2290
(lp2291
F896.0
aF341.0
aa(lp2292
F0.0
aF0.0
aa(lp2293
F0.0
aF0.0
aa(lp2294
F0.0
aF0.0
aaaa(lp2295
(lp2296
(lp2297
F384.0
aF348.0
aa(lp2298
F0.0
aF0.0
aa(lp2299
F0.0
aF0.0
aa(lp2300
F0.0
aF0.0
aaa(lp2301
(lp2302
F889.0
aF344.0
aa(lp2303
F0.0
aF0.0
aa(lp2304
F0.0
aF0.0
aa(lp2305
F0.0
aF0.0
aaaa(lp2306
(lp2307
(lp2308
F377.0
aF350.0
aa(lp2309
F0.0
aF0.0
aa(lp2310
F0.0
aF0.0
aa(lp2311
F0.0
aF0.0
aaa(lp2312
(lp2313
F882.0
aF345.0
aa(lp2314
F0.0
aF0.0
aa(lp2315
F0.0
aF0.0
aa(lp2316
F0.0
aF0.0
aaaa(lp2317
(lp2318
(lp2319
F371.0
aF351.0
aa(lp2320
F0.0
aF0.0
aa(lp2321
F0.0
aF0.0
aa(lp2322
F0.0
aF0.0
aaa(lp2323
(lp2324
F875.0
aF347.0
aa(lp2325
F0.0
aF0.0
aa(lp2326
F0.0
aF0.0
aa(lp2327
F0.0
aF0.0
aaaa(lp2328
(lp2329
(lp2330
F364.0
aF351.0
aa(lp2331
F0.0
aF0.0
aa(lp2332
F0.0
aF0.0
aa(lp2333
F0.0
aF0.0
aaag2323
aa(lp2334
g2329
a(lp2335
(lp2336
F859.0
aF348.0
aa(lp2337
F0.0
aF0.0
aa(lp2338
F0.0
aF0.0
aa(lp2339
F0.0
aF0.0
aaaa(lp2340
(lp2341
(lp2342
F348.0
aF351.0
aa(lp2343
F0.0
aF0.0
aa(lp2344
F0.0
aF0.0
aa(lp2345
F0.0
aF0.0
aaag2335
aa(lp2346
(lp2347
(lp2348
F339.0
aF350.0
aa(lp2349
F0.0
aF0.0
aa(lp2350
F0.0
aF0.0
aa(lp2351
F0.0
aF0.0
aaa(lp2352
(lp2353
F841.0
aF346.0
aa(lp2354
F0.0
aF0.0
aa(lp2355
F0.0
aF0.0
aa(lp2356
F0.0
aF0.0
aaaa(lp2357
(lp2358
(lp2359
F331.0
aF348.0
aa(lp2360
F0.0
aF0.0
aa(lp2361
F0.0
aF0.0
aa(lp2362
F0.0
aF0.0
aaa(lp2363
(lp2364
F833.0
aF345.0
aa(lp2365
F0.0
aF0.0
aa(lp2366
F0.0
aF0.0
aa(lp2367
F0.0
aF0.0
aaaa(lp2368
(lp2369
(lp2370
F323.0
aF345.0
aa(lp2371
F0.0
aF0.0
aa(lp2372
F0.0
aF0.0
aa(lp2373
F0.0
aF0.0
aaa(lp2374
(lp2375
F826.0
aF344.0
aa(lp2376
F0.0
aF0.0
aa(lp2377
F0.0
aF0.0
aa(lp2378
F0.0
aF0.0
aaaa(lp2379
g2369
a(lp2380
(lp2381
F817.0
aF342.0
aa(lp2382
F0.0
aF0.0
aa(lp2383
F0.0
aF0.0
aa(lp2384
F0.0
aF0.0
aaaa(lp2385
(lp2386
(lp2387
F309.0
aF342.0
aa(lp2388
F0.0
aF0.0
aa(lp2389
F0.0
aF0.0
aa(lp2390
F0.0
aF0.0
aaag2380
aa(lp2391
g2386
a(lp2392
(lp2393
F801.0
aF335.0
aa(lp2394
F0.0
aF0.0
aa(lp2395
F0.0
aF0.0
aa(lp2396
F0.0
aF0.0
aaaa(lp2397
(lp2398
(lp2399
F296.0
aF335.0
aa(lp2400
F0.0
aF0.0
aa(lp2401
F0.0
aF0.0
aa(lp2402
F0.0
aF0.0
aaag2392
aa(lp2403
(lp2404
(lp2405
F292.0
aF332.0
aa(lp2406
F0.0
aF0.0
aa(lp2407
F0.0
aF0.0
aa(lp2408
F0.0
aF0.0
aaa(lp2409
(lp2410
F792.0
aF330.0
aa(lp2411
F0.0
aF0.0
aa(lp2412
F0.0
aF0.0
aa(lp2413
F0.0
aF0.0
aaaa(lp2414
(lp2415
(lp2416
F287.0
aF327.0
aa(lp2417
F0.0
aF0.0
aa(lp2418
F0.0
aF0.0
aa(lp2419
F0.0
aF0.0
aaa(lp2420
(lp2421
F790.0
aF326.0
aa(lp2422
F0.0
aF0.0
aa(lp2423
F0.0
aF0.0
aa(lp2424
F0.0
aF0.0
aaaa(lp2425
(lp2426
(lp2427
F284.0
aF323.0
aa(lp2428
F0.0
aF0.0
aa(lp2429
F0.0
aF0.0
aa(lp2430
F0.0
aF0.0
aaa(lp2431
(lp2432
F786.0
aF321.0
aa(lp2433
F0.0
aF0.0
aa(lp2434
F0.0
aF0.0
aa(lp2435
F0.0
aF0.0
aaaa(lp2436
g2426
a(lp2437
(lp2438
F785.0
aF318.0
aa(lp2439
F0.0
aF0.0
aa(lp2440
F0.0
aF0.0
aa(lp2441
F0.0
aF0.0
aaaa(lp2442
(lp2443
(lp2444
F280.0
aF316.0
aa(lp2445
F0.0
aF0.0
aa(lp2446
F0.0
aF0.0
aa(lp2447
F0.0
aF0.0
aaag2437
aa(lp2448
g2443
a(lp2449
(lp2450
F785.0
aF310.0
aa(lp2451
F0.0
aF0.0
aa(lp2452
F0.0
aF0.0
aa(lp2453
F0.0
aF0.0
aaaa(lp2454
(lp2455
(lp2456
F280.0
aF308.0
aa(lp2457
F0.0
aF0.0
aa(lp2458
F0.0
aF0.0
aa(lp2459
F0.0
aF0.0
aaag2449
aa(lp2460
g2455
a(lp2461
(lp2462
F786.0
aF303.0
aa(lp2463
F0.0
aF0.0
aa(lp2464
F0.0
aF0.0
aa(lp2465
F0.0
aF0.0
aaaa(lp2466
(lp2467
(lp2468
F280.0
aF300.0
aa(lp2469
F0.0
aF0.0
aa(lp2470
F0.0
aF0.0
aa(lp2471
F0.0
aF0.0
aaag2461
aa(lp2472
(lp2473
(lp2474
F280.0
aF296.0
aa(lp2475
F0.0
aF0.0
aa(lp2476
F0.0
aF0.0
aa(lp2477
F0.0
aF0.0
aaa(lp2478
(lp2479
F787.0
aF295.0
aa(lp2480
F0.0
aF0.0
aa(lp2481
F0.0
aF0.0
aa(lp2482
F0.0
aF0.0
aaaa(lp2483
g2473
a(lp2484
(lp2485
F788.0
aF289.0
aa(lp2486
F0.0
aF0.0
aa(lp2487
F0.0
aF0.0
aa(lp2488
F0.0
aF0.0
aaaa(lp2489
(lp2490
(lp2491
F281.0
aF287.0
aa(lp2492
F0.0
aF0.0
aa(lp2493
F0.0
aF0.0
aa(lp2494
F0.0
aF0.0
aaag2484
aa(lp2495
g2490
a(lp2496
(lp2497
F791.0
aF281.0
aa(lp2498
F0.0
aF0.0
aa(lp2499
F0.0
aF0.0
aa(lp2500
F0.0
aF0.0
aaaa(lp2501
(lp2502
(lp2503
F284.0
aF279.0
aa(lp2504
F0.0
aF0.0
aa(lp2505
F0.0
aF0.0
aa(lp2506
F0.0
aF0.0
aaag2496
aa(lp2507
(lp2508
(lp2509
F287.0
aF274.0
aa(lp2510
F0.0
aF0.0
aa(lp2511
F0.0
aF0.0
aa(lp2512
F0.0
aF0.0
aaa(lp2513
(lp2514
F795.0
aF272.0
aa(lp2515
F0.0
aF0.0
aa(lp2516
F0.0
aF0.0
aa(lp2517
F0.0
aF0.0
aaaa(lp2518
(lp2519
(lp2520
F288.0
aF271.0
aa(lp2521
F0.0
aF0.0
aa(lp2522
F0.0
aF0.0
aa(lp2523
F0.0
aF0.0
aaa(lp2524
(lp2525
F799.0
aF268.0
aa(lp2526
F0.0
aF0.0
aa(lp2527
F0.0
aF0.0
aa(lp2528
F0.0
aF0.0
aaaa(lp2529
g2519
a(lp2530
(lp2531
F801.0
aF265.0
aa(lp2532
F0.0
aF0.0
aa(lp2533
F0.0
aF0.0
aa(lp2534
F0.0
aF0.0
aaaa(lp2535
g2519
a(lp2536
(lp2537
F806.0
aF262.0
aa(lp2538
F0.0
aF0.0
aa(lp2539
F0.0
aF0.0
aa(lp2540
F0.0
aF0.0
aaaa(lp2541
(lp2542
(lp2543
F298.0
aF263.0
aa(lp2544
F0.0
aF0.0
aa(lp2545
F0.0
aF0.0
aa(lp2546
F0.0
aF0.0
aaag2536
aa(lp2547
g2542
a(lp2548
(lp2549
F816.0
aF258.0
aa(lp2550
F0.0
aF0.0
aa(lp2551
F0.0
aF0.0
aa(lp2552
F0.0
aF0.0
aaaa(lp2553
(lp2554
(lp2555
F311.0
aF258.0
aa(lp2556
F0.0
aF0.0
aa(lp2557
F0.0
aF0.0
aa(lp2558
F0.0
aF0.0
aaag2548
aa(lp2559
g2554
a(lp2560
(lp2561
F830.0
aF254.0
aa(lp2562
F0.0
aF0.0
aa(lp2563
F0.0
aF0.0
aa(lp2564
F0.0
aF0.0
aaaa(lp2565
(lp2566
(lp2567
F324.0
aF256.0
aa(lp2568
F0.0
aF0.0
aa(lp2569
F0.0
aF0.0
aa(lp2570
F0.0
aF0.0
aaag2560
aa(lp2571
(lp2572
(lp2573
F331.0
aF257.0
aa(lp2574
F0.0
aF0.0
aa(lp2575
F0.0
aF0.0
aa(lp2576
F0.0
aF0.0
aaa(lp2577
(lp2578
F838.0
aF253.0
aa(lp2579
F0.0
aF0.0
aa(lp2580
F0.0
aF0.0
aa(lp2581
F0.0
aF0.0
aaaa(lp2582
g2572
a(lp2583
(lp2584
F854.0
aF254.0
aa(lp2585
F0.0
aF0.0
aa(lp2586
F0.0
aF0.0
aa(lp2587
F0.0
aF0.0
aaaa(lp2588
(lp2589
(lp2590
F346.0
aF258.0
aa(lp2591
F0.0
aF0.0
aa(lp2592
F0.0
aF0.0
aa(lp2593
F0.0
aF0.0
aaag2583
aa(lp2594
g2589
a(lp2595
(lp2596
F868.0
aF256.0
aa(lp2597
F0.0
aF0.0
aa(lp2598
F0.0
aF0.0
aa(lp2599
F0.0
aF0.0
aaaa(lp2600
(lp2601
(lp2602
F365.0
aF263.0
aa(lp2603
F0.0
aF0.0
aa(lp2604
F0.0
aF0.0
aa(lp2605
F0.0
aF0.0
aaag2595
aa(lp2606
g2601
a(lp2607
(lp2608
F876.0
aF256.0
aa(lp2609
F0.0
aF0.0
aa(lp2610
F0.0
aF0.0
aa(lp2611
F0.0
aF0.0
aaaa(lp2612
g2601
a(lp2613
(lp2614
F892.0
aF263.0
aa(lp2615
F0.0
aF0.0
aa(lp2616
F0.0
aF0.0
aa(lp2617
F0.0
aF0.0
aaaa(lp2618
(lp2619
(lp2620
F383.0
aF271.0
aa(lp2621
F0.0
aF0.0
aa(lp2622
F0.0
aF0.0
aa(lp2623
F0.0
aF0.0
aaag2613
aa(lp2624
g2619
a(lp2625
(lp2626
F903.0
aF269.0
aa(lp2627
F0.0
aF0.0
aa(lp2628
F0.0
aF0.0
aa(lp2629
F0.0
aF0.0
aaaa(lp2630
(lp2631
(lp2632
F391.0
aF278.0
aa(lp2633
F0.0
aF0.0
aa(lp2634
F0.0
aF0.0
aa(lp2635
F0.0
aF0.0
aaag2625
aa(lp2636
g2631
a(lp2637
(lp2638
F908.0
aF276.0
aa(lp2639
F0.0
aF0.0
aa(lp2640
F0.0
aF0.0
aa(lp2641
F0.0
aF0.0
aaaa(lp2642
(lp2643
(lp2644
F393.0
aF281.0
aa(lp2645
F0.0
aF0.0
aa(lp2646
F0.0
aF0.0
aa(lp2647
F0.0
aF0.0
aaag2637
aa(lp2648
(lp2649
(lp2650
F397.0
aF288.0
aa(lp2651
F0.0
aF0.0
aa(lp2652
F0.0
aF0.0
aa(lp2653
F0.0
aF0.0
aaag2637
aa(lp2654
g2649
a(lp2655
(lp2656
F910.0
aF286.0
aa(lp2657
F0.0
aF0.0
aa(lp2658
F0.0
aF0.0
aa(lp2659
F0.0
aF0.0
aaaa(lp2660
(lp2661
(lp2662
F397.0
aF296.0
aa(lp2663
F0.0
aF0.0
aa(lp2664
F0.0
aF0.0
aa(lp2665
F0.0
aF0.0
aaag2655
aa(lp2666
g2661
a(lp2667
(lp2668
F910.0
aF290.0
aa(lp2669
F0.0
aF0.0
aa(lp2670
F0.0
aF0.0
aa(lp2671
F0.0
aF0.0
aaaa(lp2672
(lp2673
(lp2674
F393.0
aF303.0
aa(lp2675
F0.0
aF0.0
aa(lp2676
F0.0
aF0.0
aa(lp2677
F0.0
aF0.0
aaa(lp2678
(lp2679
F906.0
aF294.0
aa(lp2680
F0.0
aF0.0
aa(lp2681
F0.0
aF0.0
aa(lp2682
F0.0
aF0.0
aaaa(lp2683
g2673
a(lp2684
(lp2685
F904.0
aF298.0
aa(lp2686
F0.0
aF0.0
aa(lp2687
F0.0
aF0.0
aa(lp2688
F0.0
aF0.0
aaaa(lp2689
g2673
a(lp2690
(lp2691
F903.0
aF301.0
aa(lp2692
F0.0
aF0.0
aa(lp2693
F0.0
aF0.0
aa(lp2694
F0.0
aF0.0
aaaa(lp2695
(lp2696
(lp2697
F383.0
aF312.0
aa(lp2698
F0.0
aF0.0
aa(lp2699
F0.0
aF0.0
aa(lp2700
F0.0
aF0.0
aaag2690
aa(lp2701
g2696
a(lp2702
(lp2703
F893.0
aF308.0
aa(lp2704
F0.0
aF0.0
aa(lp2705
F0.0
aF0.0
aa(lp2706
F0.0
aF0.0
aaaa(lp2707
(lp2708
(lp2709
F376.0
aF315.0
aa(lp2710
F0.0
aF0.0
aa(lp2711
F0.0
aF0.0
aa(lp2712
F0.0
aF0.0
aaa(lp2713
(lp2714
F886.0
aF311.0
aa(lp2715
F0.0
aF0.0
aa(lp2716
F0.0
aF0.0
aa(lp2717
F0.0
aF0.0
aaaa(lp2718
(lp2719
(lp2720
F369.0
aF318.0
aa(lp2721
F0.0
aF0.0
aa(lp2722
F0.0
aF0.0
aa(lp2723
F0.0
aF0.0
aaa(lp2724
(lp2725
F879.0
aF314.0
aa(lp2726
F0.0
aF0.0
aa(lp2727
F0.0
aF0.0
aa(lp2728
F0.0
aF0.0
aaaa(lp2729
(lp2730
(lp2731
F362.0
aF319.0
aa(lp2732
F0.0
aF0.0
aa(lp2733
F0.0
aF0.0
aa(lp2734
F0.0
aF0.0
aaa(lp2735
(lp2736
F871.0
aF315.0
aa(lp2737
F0.0
aF0.0
aa(lp2738
F0.0
aF0.0
aa(lp2739
F0.0
aF0.0
aaaa(lp2740
(lp2741
(lp2742
F352.0
aF320.0
aa(lp2743
F0.0
aF0.0
aa(lp2744
F0.0
aF0.0
aa(lp2745
F0.0
aF0.0
aaag2735
aa(lp2746
g2741
a(lp2747
(lp2748
F848.0
aF316.0
aa(lp2749
F0.0
aF0.0
aa(lp2750
F0.0
aF0.0
aa(lp2751
F0.0
aF0.0
aaaa(lp2752
(lp2753
(lp2754
F330.0
aF319.0
aa(lp2755
F0.0
aF0.0
aa(lp2756
F0.0
aF0.0
aa(lp2757
F0.0
aF0.0
aaag2747
aa(lp2758
(lp2759
(lp2760
F318.0
aF319.0
aa(lp2761
F0.0
aF0.0
aa(lp2762
F0.0
aF0.0
aa(lp2763
F0.0
aF0.0
aaa(lp2764
(lp2765
F824.0
aF316.0
aa(lp2766
F0.0
aF0.0
aa(lp2767
F0.0
aF0.0
aa(lp2768
F0.0
aF0.0
aaaa(lp2769
(lp2770
(lp2771
F304.0
aF317.0
aa(lp2772
F0.0
aF0.0
aa(lp2773
F0.0
aF0.0
aa(lp2774
F0.0
aF0.0
aaa(lp2775
(lp2776
F809.0
aF314.0
aa(lp2777
F0.0
aF0.0
aa(lp2778
F0.0
aF0.0
aa(lp2779
F0.0
aF0.0
aaaa(lp2780
(lp2781
(lp2782
F292.0
aF314.0
aa(lp2783
F0.0
aF0.0
aa(lp2784
F0.0
aF0.0
aa(lp2785
F0.0
aF0.0
aaa(lp2786
(lp2787
F797.0
aF313.0
aa(lp2788
F0.0
aF0.0
aa(lp2789
F0.0
aF0.0
aa(lp2790
F0.0
aF0.0
aaaa(lp2791
g2781
a(lp2792
(lp2793
F785.0
aF311.0
aa(lp2794
F0.0
aF0.0
aa(lp2795
F0.0
aF0.0
aa(lp2796
F0.0
aF0.0
aaaa(lp2797
(lp2798
(lp2799
F268.0
aF310.0
aa(lp2800
F0.0
aF0.0
aa(lp2801
F0.0
aF0.0
aa(lp2802
F0.0
aF0.0
aaag2792
aa(lp2803
g2798
a(lp2804
(lp2805
F755.0
aF304.0
aa(lp2806
F0.0
aF0.0
aa(lp2807
F0.0
aF0.0
aa(lp2808
F0.0
aF0.0
aaaa(lp2809
(lp2810
(lp2811
F245.0
aF303.0
aa(lp2812
F0.0
aF0.0
aa(lp2813
F0.0
aF0.0
aa(lp2814
F0.0
aF0.0
aaag2804
aa(lp2815
(lp2816
(lp2817
F229.0
aF296.0
aa(lp2818
F0.0
aF0.0
aa(lp2819
F0.0
aF0.0
aa(lp2820
F0.0
aF0.0
aaa(lp2821
(lp2822
F733.0
aF297.0
aa(lp2823
F0.0
aF0.0
aa(lp2824
F0.0
aF0.0
aa(lp2825
F0.0
aF0.0
aaaa(lp2826
(lp2827
(lp2828
F218.0
aF294.0
aa(lp2829
F0.0
aF0.0
aa(lp2830
F0.0
aF0.0
aa(lp2831
F0.0
aF0.0
aaa(lp2832
(lp2833
F723.0
aF294.0
aa(lp2834
F0.0
aF0.0
aa(lp2835
F0.0
aF0.0
aa(lp2836
F0.0
aF0.0
aaaa(lp2837
(lp2838
(lp2839
F209.0
aF288.0
aa(lp2840
F0.0
aF0.0
aa(lp2841
F0.0
aF0.0
aa(lp2842
F0.0
aF0.0
aaa(lp2843
(lp2844
F714.0
aF289.0
aa(lp2845
F0.0
aF0.0
aa(lp2846
F0.0
aF0.0
aa(lp2847
F0.0
aF0.0
aaaa(lp2848
g2838
a(lp2849
(lp2850
F707.0
aF287.0
aa(lp2851
F0.0
aF0.0
aa(lp2852
F0.0
aF0.0
aa(lp2853
F0.0
aF0.0
aaaa(lp2854
(lp2855
(lp2856
F197.0
aF280.0
aa(lp2857
F0.0
aF0.0
aa(lp2858
F0.0
aF0.0
aa(lp2859
F0.0
aF0.0
aaag2849
aa(lp2860
(lp2861
(lp2862
F193.0
aF276.0
aa(lp2863
F0.0
aF0.0
aa(lp2864
F0.0
aF0.0
aa(lp2865
F0.0
aF0.0
aaa(lp2866
(lp2867
F699.0
aF278.0
aa(lp2868
F0.0
aF0.0
aa(lp2869
F0.0
aF0.0
aa(lp2870
F0.0
aF0.0
aaaa(lp2871
(lp2872
(lp2873
F192.0
aF273.0
aa(lp2874
F0.0
aF0.0
aa(lp2875
F0.0
aF0.0
aa(lp2876
F0.0
aF0.0
aaa(lp2877
(lp2878
F697.0
aF273.0
aa(lp2879
F0.0
aF0.0
aa(lp2880
F0.0
aF0.0
aa(lp2881
F0.0
aF0.0
aaaa(lp2882
(lp2883
(lp2884
F192.0
aF269.0
aa(lp2885
F0.0
aF0.0
aa(lp2886
F0.0
aF0.0
aa(lp2887
F0.0
aF0.0
aaa(lp2888
(lp2889
F698.0
aF270.0
aa(lp2890
F0.0
aF0.0
aa(lp2891
F0.0
aF0.0
aa(lp2892
F0.0
aF0.0
aaaa(lp2893
g2883
a(lp2894
(lp2895
F699.0
aF265.0
aa(lp2896
F0.0
aF0.0
aa(lp2897
F0.0
aF0.0
aa(lp2898
F0.0
aF0.0
aaaa(lp2899
(lp2900
(lp2901
F194.0
aF262.0
aa(lp2902
F0.0
aF0.0
aa(lp2903
F0.0
aF0.0
aa(lp2904
F0.0
aF0.0
aaag2894
aa(lp2905
g2900
a(lp2906
(lp2907
F704.0
aF260.0
aa(lp2908
F0.0
aF0.0
aa(lp2909
F0.0
aF0.0
aa(lp2910
F0.0
aF0.0
aaaa(lp2911
(lp2912
(lp2913
F198.0
aF255.0
aa(lp2914
F0.0
aF0.0
aa(lp2915
F0.0
aF0.0
aa(lp2916
F0.0
aF0.0
aaag2906
aa(lp2917
(lp2918
(lp2919
F200.0
aF252.0
aa(lp2920
F0.0
aF0.0
aa(lp2921
F0.0
aF0.0
aa(lp2922
F0.0
aF0.0
aaa(lp2923
(lp2924
F710.0
aF253.0
aa(lp2925
F0.0
aF0.0
aa(lp2926
F0.0
aF0.0
aa(lp2927
F0.0
aF0.0
aaaa(lp2928
(lp2929
(lp2930
F204.0
aF249.0
aa(lp2931
F0.0
aF0.0
aa(lp2932
F0.0
aF0.0
aa(lp2933
F0.0
aF0.0
aaa(lp2934
(lp2935
F712.0
aF249.0
aa(lp2936
F0.0
aF0.0
aa(lp2937
F0.0
aF0.0
aa(lp2938
F0.0
aF0.0
aaaa(lp2939
(lp2940
(lp2941
F207.0
aF246.0
aa(lp2942
F0.0
aF0.0
aa(lp2943
F0.0
aF0.0
aa(lp2944
F0.0
aF0.0
aaa(lp2945
(lp2946
F717.0
aF247.0
aa(lp2947
F0.0
aF0.0
aa(lp2948
F0.0
aF0.0
aa(lp2949
F0.0
aF0.0
aaaa(lp2950
g2940
a(lp2951
(lp2952
F720.0
aF244.0
aa(lp2953
F0.0
aF0.0
aa(lp2954
F0.0
aF0.0
aa(lp2955
F0.0
aF0.0
aaaa(lp2956
(lp2957
(lp2958
F216.0
aF241.0
aa(lp2959
F0.0
aF0.0
aa(lp2960
F0.0
aF0.0
aa(lp2961
F0.0
aF0.0
aaag2951
aa(lp2962
g2957
ag2951
aa(lp2963
(lp2964
(lp2965
F232.0
aF239.0
aa(lp2966
F0.0
aF0.0
aa(lp2967
F0.0
aF0.0
aa(lp2968
F0.0
aF0.0
aaa(lp2969
(lp2970
F744.0
aF238.0
aa(lp2971
F0.0
aF0.0
aa(lp2972
F0.0
aF0.0
aa(lp2973
F0.0
aF0.0
aaaa(lp2974
(lp2975
(lp2976
F241.0
aF238.0
aa(lp2977
F0.0
aF0.0
aa(lp2978
F0.0
aF0.0
aa(lp2979
F0.0
aF0.0
aaa(lp2980
(lp2981
F753.0
aF237.0
aa(lp2982
F0.0
aF0.0
aa(lp2983
F0.0
aF0.0
aa(lp2984
F0.0
aF0.0
aaaa(lp2985
g2975
a(lp2986
(lp2987
F763.0
aF237.0
aa(lp2988
F0.0
aF0.0
aa(lp2989
F0.0
aF0.0
aa(lp2990
F0.0
aF0.0
aaaa(lp2991
(lp2992
(lp2993
F261.0
aF238.0
aa(lp2994
F0.0
aF0.0
aa(lp2995
F0.0
aF0.0
aa(lp2996
F0.0
aF0.0
aaag2986
aa(lp2997
g2992
a(lp2998
(lp2999
F783.0
aF236.0
aa(lp3000
F0.0
aF0.0
aa(lp3001
F0.0
aF0.0
aa(lp3002
F0.0
aF0.0
aaaa(lp3003
(lp3004
(lp3005
F279.0
aF240.0
aa(lp3006
F0.0
aF0.0
aa(lp3007
F0.0
aF0.0
aa(lp3008
F0.0
aF0.0
aaag2998
aa(lp3009
g3004
a(lp3010
(lp3011
F800.0
aF237.0
aa(lp3012
F0.0
aF0.0
aa(lp3013
F0.0
aF0.0
aa(lp3014
F0.0
aF0.0
aaaa(lp3015
(lp3016
(lp3017
F294.0
aF242.0
aa(lp3018
F0.0
aF0.0
aa(lp3019
F0.0
aF0.0
aa(lp3020
F0.0
aF0.0
aaa(lp3021
(lp3022
F808.0
aF240.0
aa(lp3023
F0.0
aF0.0
aa(lp3024
F0.0
aF0.0
aa(lp3025
F0.0
aF0.0
aaaa(lp3026
(lp3027
(lp3028
F301.0
aF245.0
aa(lp3029
F0.0
aF0.0
aa(lp3030
F0.0
aF0.0
aa(lp3031
F0.0
aF0.0
aaa(lp3032
(lp3033
F815.0
aF242.0
aa(lp3034
F0.0
aF0.0
aa(lp3035
F0.0
aF0.0
aa(lp3036
F0.0
aF0.0
aaaa(lp3037
(lp3038
(lp3039
F307.0
aF247.0
aa(lp3040
F0.0
aF0.0
aa(lp3041
F0.0
aF0.0
aa(lp3042
F0.0
aF0.0
aaa(lp3043
(lp3044
F822.0
aF244.0
aa(lp3045
F0.0
aF0.0
aa(lp3046
F0.0
aF0.0
aa(lp3047
F0.0
aF0.0
aaaa(lp3048
(lp3049
(lp3050
F312.0
aF249.0
aa(lp3051
F0.0
aF0.0
aa(lp3052
F0.0
aF0.0
aa(lp3053
F0.0
aF0.0
aaag3043
aa(lp3054
g3049
a(lp3055
(lp3056
F832.0
aF251.0
aa(lp3057
F0.0
aF0.0
aa(lp3058
F0.0
aF0.0
aa(lp3059
F0.0
aF0.0
aaaa(lp3060
(lp3061
(lp3062
F323.0
aF256.0
aa(lp3063
F0.0
aF0.0
aa(lp3064
F0.0
aF0.0
aa(lp3065
F0.0
aF0.0
aaag3055
aa(lp3066
(lp3067
(lp3068
F327.0
aF261.0
aa(lp3069
F0.0
aF0.0
aa(lp3070
F0.0
aF0.0
aa(lp3071
F0.0
aF0.0
aaa(lp3072
(lp3073
F840.0
aF257.0
aa(lp3074
F0.0
aF0.0
aa(lp3075
F0.0
aF0.0
aa(lp3076
F0.0
aF0.0
aaaa(lp3077
(lp3078
(lp3079
F330.0
aF264.0
aa(lp3080
F0.0
aF0.0
aa(lp3081
F0.0
aF0.0
aa(lp3082
F0.0
aF0.0
aaa(lp3083
(lp3084
F843.0
aF261.0
aa(lp3085
F0.0
aF0.0
aa(lp3086
F0.0
aF0.0
aa(lp3087
F0.0
aF0.0
aaaa(lp3088
(lp3089
(lp3090
F335.0
aF268.0
aa(lp3091
F0.0
aF0.0
aa(lp3092
F0.0
aF0.0
aa(lp3093
F0.0
aF0.0
aaag3083
aa(lp3094
g3089
a(lp3095
(lp3096
F848.0
aF268.0
aa(lp3097
F0.0
aF0.0
aa(lp3098
F0.0
aF0.0
aa(lp3099
F0.0
aF0.0
aaaa(lp3100
(lp3101
(lp3102
F338.0
aF277.0
aa(lp3103
F0.0
aF0.0
aa(lp3104
F0.0
aF0.0
aa(lp3105
F0.0
aF0.0
aaag3095
aa(lp3106
g3101
a(lp3107
(lp3108
F851.0
aF278.0
aa(lp3109
F0.0
aF0.0
aa(lp3110
F0.0
aF0.0
aa(lp3111
F0.0
aF0.0
aaaa(lp3112
(lp3113
(lp3114
F342.0
aF286.0
aa(lp3115
F0.0
aF0.0
aa(lp3116
F0.0
aF0.0
aa(lp3117
F0.0
aF0.0
aaag3107
aa(lp3118
g3113
a(lp3119
(lp3120
F852.0
aF287.0
aa(lp3121
F0.0
aF0.0
aa(lp3122
F0.0
aF0.0
aa(lp3123
F0.0
aF0.0
aaaa(lp3124
(lp3125
(lp3126
F343.0
aF294.0
aa(lp3127
F0.0
aF0.0
aa(lp3128
F0.0
aF0.0
aa(lp3129
F0.0
aF0.0
aaa(lp3130
(lp3131
F852.0
aF290.0
aa(lp3132
F0.0
aF0.0
aa(lp3133
F0.0
aF0.0
aa(lp3134
F0.0
aF0.0
aaaa(lp3135
(lp3136
(lp3137
F343.0
aF298.0
aa(lp3138
F0.0
aF0.0
aa(lp3139
F0.0
aF0.0
aa(lp3140
F0.0
aF0.0
aaa(lp3141
(lp3142
F850.0
aF295.0
aa(lp3143
F0.0
aF0.0
aa(lp3144
F0.0
aF0.0
aa(lp3145
F0.0
aF0.0
aaaa(lp3146
g3136
a(lp3147
(lp3148
F848.0
aF300.0
aa(lp3149
F0.0
aF0.0
aa(lp3150
F0.0
aF0.0
aa(lp3151
F0.0
aF0.0
aaaa(lp3152
(lp3153
(lp3154
F337.0
aF307.0
aa(lp3155
F0.0
aF0.0
aa(lp3156
F0.0
aF0.0
aa(lp3157
F0.0
aF0.0
aaag3147
aa(lp3158
g3153
a(lp3159
(lp3160
F840.0
aF308.0
aa(lp3161
F0.0
aF0.0
aa(lp3162
F0.0
aF0.0
aa(lp3163
F0.0
aF0.0
aaaa(lp3164
(lp3165
(lp3166
F328.0
aF314.0
aa(lp3167
F0.0
aF0.0
aa(lp3168
F0.0
aF0.0
aa(lp3169
F0.0
aF0.0
aaag3159
aa(lp3170
(lp3171
(lp3172
F322.0
aF318.0
aa(lp3173
F0.0
aF0.0
aa(lp3174
F0.0
aF0.0
aa(lp3175
F0.0
aF0.0
aaa(lp3176
(lp3177
F830.0
aF315.0
aa(lp3178
F0.0
aF0.0
aa(lp3179
F0.0
aF0.0
aa(lp3180
F0.0
aF0.0
aaaa(lp3181
(lp3182
(lp3183
F316.0
aF320.0
aa(lp3184
F0.0
aF0.0
aa(lp3185
F0.0
aF0.0
aa(lp3186
F0.0
aF0.0
aaa(lp3187
(lp3188
F822.0
aF318.0
aa(lp3189
F0.0
aF0.0
aa(lp3190
F0.0
aF0.0
aa(lp3191
F0.0
aF0.0
aaaa(lp3192
(lp3193
(lp3194
F309.0
aF321.0
aa(lp3195
F0.0
aF0.0
aa(lp3196
F0.0
aF0.0
aa(lp3197
F0.0
aF0.0
aaag3187
aa(lp3198
g3193
a(lp3199
(lp3200
F805.0
aF321.0
aa(lp3201
F0.0
aF0.0
aa(lp3202
F0.0
aF0.0
aa(lp3203
F0.0
aF0.0
aaaa(lp3204
(lp3205
(lp3206
F292.0
aF325.0
aa(lp3207
F0.0
aF0.0
aa(lp3208
F0.0
aF0.0
aa(lp3209
F0.0
aF0.0
aaag3199
aa(lp3210
g3205
a(lp3211
(lp3212
F784.0
aF324.0
aa(lp3213
F0.0
aF0.0
aa(lp3214
F0.0
aF0.0
aa(lp3215
F0.0
aF0.0
aaaa(lp3216
(lp3217
(lp3218
F273.0
aF324.0
aa(lp3219
F0.0
aF0.0
aa(lp3220
F0.0
aF0.0
aa(lp3221
F0.0
aF0.0
aaag3211
aa(lp3222
(lp3223
(lp3224
F264.0
aF324.0
aa(lp3225
F0.0
aF0.0
aa(lp3226
F0.0
aF0.0
aa(lp3227
F0.0
aF0.0
aaa(lp3228
(lp3229
F762.0
aF322.0
aa(lp3230
F0.0
aF0.0
aa(lp3231
F0.0
aF0.0
aa(lp3232
F0.0
aF0.0
aaaa(lp3233
(lp3234
(lp3235
F256.0
aF322.0
aa(lp3236
F0.0
aF0.0
aa(lp3237
F0.0
aF0.0
aa(lp3238
F0.0
aF0.0
aaa(lp3239
(lp3240
F754.0
aF320.0
aa(lp3241
F0.0
aF0.0
aa(lp3242
F0.0
aF0.0
aa(lp3243
F0.0
aF0.0
aaaa(lp3244
(lp3245
(lp3246
F248.0
aF320.0
aa(lp3247
F0.0
aF0.0
aa(lp3248
F0.0
aF0.0
aa(lp3249
F0.0
aF0.0
aaag3239
aa(lp3250
g3245
a(lp3251
(lp3252
F743.0
aF318.0
aa(lp3253
F0.0
aF0.0
aa(lp3254
F0.0
aF0.0
aa(lp3255
F0.0
aF0.0
aaaa(lp3256
(lp3257
(lp3258
F239.0
aF317.0
aa(lp3259
F0.0
aF0.0
aa(lp3260
F0.0
aF0.0
aa(lp3261
F0.0
aF0.0
aaag3251
aa(lp3262
g3257
a(lp3263
(lp3264
F736.0
aF314.0
aa(lp3265
F0.0
aF0.0
aa(lp3266
F0.0
aF0.0
aa(lp3267
F0.0
aF0.0
aaaa(lp3268
(lp3269
(lp3270
F233.0
aF312.0
aa(lp3271
F0.0
aF0.0
aa(lp3272
F0.0
aF0.0
aa(lp3273
F0.0
aF0.0
aaa(lp3274
(lp3275
F736.0
aF312.0
aa(lp3276
F0.0
aF0.0
aa(lp3277
F0.0
aF0.0
aa(lp3278
F0.0
aF0.0
aaaa(lp3279
(lp3280
(lp3281
F236.0
aF304.0
aa(lp3282
F0.0
aF0.0
aa(lp3283
F0.0
aF0.0
aa(lp3284
F0.0
aF0.0
aaa(lp3285
(lp3286
F736.0
aF306.0
aa(lp3287
F0.0
aF0.0
aa(lp3288
F0.0
aF0.0
aa(lp3289
F0.0
aF0.0
aaaa(lp3290
g3280
a(lp3291
(lp3292
F742.0
aF302.0
aa(lp3293
F0.0
aF0.0
aa(lp3294
F0.0
aF0.0
aa(lp3295
F0.0
aF0.0
aaaa(lp3296
(lp3297
(lp3298
F240.0
aF299.0
aa(lp3299
F0.0
aF0.0
aa(lp3300
F0.0
aF0.0
aa(lp3301
F0.0
aF0.0
aaag3291
aa(lp3302
g3297
a(lp3303
(lp3304
F747.0
aF296.0
aa(lp3305
F0.0
aF0.0
aa(lp3306
F0.0
aF0.0
aa(lp3307
F0.0
aF0.0
aaaa(lp3308
g3297
ag3303
aa(lp3309
(lp3310
(lp3311
F248.0
aF293.0
aa(lp3312
F0.0
aF0.0
aa(lp3313
F0.0
aF0.0
aa(lp3314
F0.0
aF0.0
aaag3303
aa(lp3315
g3310
a(lp3316
(lp3317
F760.0
aF291.0
aa(lp3318
F0.0
aF0.0
aa(lp3319
F0.0
aF0.0
aa(lp3320
F0.0
aF0.0
aaaa(lp3321
(lp3322
(lp3323
F259.0
aF288.0
aa(lp3324
F0.0
aF0.0
aa(lp3325
F0.0
aF0.0
aa(lp3326
F0.0
aF0.0
aaag3316
aa(lp3327
g3322
a(lp3328
(lp3329
F766.0
aF288.0
aa(lp3330
F0.0
aF0.0
aa(lp3331
F0.0
aF0.0
aa(lp3332
F0.0
aF0.0
aaaa(lp3333
(lp3334
(lp3335
F271.0
aF288.0
aa(lp3336
F0.0
aF0.0
aa(lp3337
F0.0
aF0.0
aa(lp3338
F0.0
aF0.0
aaa(lp3339
(lp3340
F772.0
aF288.0
aa(lp3341
F0.0
aF0.0
aa(lp3342
F0.0
aF0.0
aa(lp3343
F0.0
aF0.0
aaaa(lp3344
g3334
a(lp3345
(lp3346
F778.0
aF286.0
aa(lp3347
F0.0
aF0.0
aa(lp3348
F0.0
aF0.0
aa(lp3349
F0.0
aF0.0
aaaa(lp3350
g3334
a(lp3351
(lp3352
F784.0
aF285.0
aa(lp3353
F0.0
aF0.0
aa(lp3354
F0.0
aF0.0
aa(lp3355
F0.0
aF0.0
aaaa(lp3356
(lp3357
(lp3358
F290.0
aF287.0
aa(lp3359
F0.0
aF0.0
aa(lp3360
F0.0
aF0.0
aa(lp3361
F0.0
aF0.0
aaag3351
aa(lp3362
g3357
a(lp3363
(lp3364
F799.0
aF285.0
aa(lp3365
F0.0
aF0.0
aa(lp3366
F0.0
aF0.0
aa(lp3367
F0.0
aF0.0
aaaa(lp3368
(lp3369
(lp3370
F305.0
aF289.0
aa(lp3371
F0.0
aF0.0
aa(lp3372
F0.0
aF0.0
aa(lp3373
F0.0
aF0.0
aaa(lp3374
(lp3375
F806.0
aF286.0
aa(lp3376
F0.0
aF0.0
aa(lp3377
F0.0
aF0.0
aa(lp3378
F0.0
aF0.0
aaaa(lp3379
g3369
a(lp3380
(lp3381
F822.0
aF289.0
aa(lp3382
F0.0
aF0.0
aa(lp3383
F0.0
aF0.0
aa(lp3384
F0.0
aF0.0
aaaa(lp3385
(lp3386
(lp3387
F322.0
aF295.0
aa(lp3388
F0.0
aF0.0
aa(lp3389
F0.0
aF0.0
aa(lp3390
F0.0
aF0.0
aaag3380
aa(lp3391
g3386
a(lp3392
(lp3393
F836.0
aF293.0
aa(lp3394
F0.0
aF0.0
aa(lp3395
F0.0
aF0.0
aa(lp3396
F0.0
aF0.0
aaaa(lp3397
g3386
a(lp3398
(lp3399
F846.0
aF296.0
aa(lp3400
F0.0
aF0.0
aa(lp3401
F0.0
aF0.0
aa(lp3402
F0.0
aF0.0
aaaa(lp3403
(lp3404
(lp3405
F351.0
aF305.0
aa(lp3406
F0.0
aF0.0
aa(lp3407
F0.0
aF0.0
aa(lp3408
F0.0
aF0.0
aaag3398
aa(lp3409
g3404
a(lp3410
(lp3411
F863.0
aF304.0
aa(lp3412
F0.0
aF0.0
aa(lp3413
F0.0
aF0.0
aa(lp3414
F0.0
aF0.0
aaaa(lp3415
(lp3416
(lp3417
F366.0
aF314.0
aa(lp3418
F0.0
aF0.0
aa(lp3419
F0.0
aF0.0
aa(lp3420
F0.0
aF0.0
aaa(lp3421
(lp3422
F872.0
aF308.0
aa(lp3423
F0.0
aF0.0
aa(lp3424
F0.0
aF0.0
aa(lp3425
F0.0
aF0.0
aaaa(lp3426
g3416
a(lp3427
(lp3428
F878.0
aF313.0
aa(lp3429
F0.0
aF0.0
aa(lp3430
F0.0
aF0.0
aa(lp3431
F0.0
aF0.0
aaaa(lp3432
(lp3433
(lp3434
F372.0
aF319.0
aa(lp3435
F0.0
aF0.0
aa(lp3436
F0.0
aF0.0
aa(lp3437
F0.0
aF0.0
aaa(lp3438
(lp3439
F882.0
aF317.0
aa(lp3440
F0.0
aF0.0
aa(lp3441
F0.0
aF0.0
aa(lp3442
F0.0
aF0.0
aaaa(lp3443
(lp3444
(lp3445
F376.0
aF323.0
aa(lp3446
F0.0
aF0.0
aa(lp3447
F0.0
aF0.0
aa(lp3448
F0.0
aF0.0
aaag3438
aa(lp3449
g3444
a(lp3450
(lp3451
F893.0
aF327.0
aa(lp3452
F0.0
aF0.0
aa(lp3453
F0.0
aF0.0
aa(lp3454
F0.0
aF0.0
aaaa(lp3455
(lp3456
(lp3457
F391.0
aF336.0
aa(lp3458
F0.0
aF0.0
aa(lp3459
F0.0
aF0.0
aa(lp3460
F0.0
aF0.0
aaag3450
aa(lp3461
(lp3462
(lp3463
F393.0
aF341.0
aa(lp3464
F0.0
aF0.0
aa(lp3465
F0.0
aF0.0
aa(lp3466
F0.0
aF0.0
aaa(lp3467
(lp3468
F901.0
aF336.0
aa(lp3469
F0.0
aF0.0
aa(lp3470
F0.0
aF0.0
aa(lp3471
F0.0
aF0.0
aaaa(lp3472
(lp3473
(lp3474
F398.0
aF345.0
aa(lp3475
F0.0
aF0.0
aa(lp3476
F0.0
aF0.0
aa(lp3477
F0.0
aF0.0
aaa(lp3478
(lp3479
F904.0
aF340.0
aa(lp3480
F0.0
aF0.0
aa(lp3481
F0.0
aF0.0
aa(lp3482
F0.0
aF0.0
aaaa(lp3483
(lp3484
(lp3485
F400.0
aF350.0
aa(lp3486
F0.0
aF0.0
aa(lp3487
F0.0
aF0.0
aa(lp3488
F0.0
aF0.0
aaa(lp3489
(lp3490
F904.0
aF346.0
aa(lp3491
F0.0
aF0.0
aa(lp3492
F0.0
aF0.0
aa(lp3493
F0.0
aF0.0
aaaa(lp3494
g3484
a(lp3495
(lp3496
F904.0
aF350.0
aa(lp3497
F0.0
aF0.0
aa(lp3498
F0.0
aF0.0
aa(lp3499
F0.0
aF0.0
aaaa(lp3500
(lp3501
(lp3502
F400.0
aF359.0
aa(lp3503
F0.0
aF0.0
aa(lp3504
F0.0
aF0.0
aa(lp3505
F0.0
aF0.0
aaag3495
aa(lp3506
g3501
a(lp3507
(lp3508
F904.0
aF358.0
aa(lp3509
F0.0
aF0.0
aa(lp3510
F0.0
aF0.0
aa(lp3511
F0.0
aF0.0
aaaa(lp3512
(lp3513
(lp3514
F400.0
aF367.0
aa(lp3515
F0.0
aF0.0
aa(lp3516
F0.0
aF0.0
aa(lp3517
F0.0
aF0.0
aaag3507
aa(lp3518
(lp3519
(lp3520
F399.0
aF371.0
aa(lp3521
F0.0
aF0.0
aa(lp3522
F0.0
aF0.0
aa(lp3523
F0.0
aF0.0
aaa(lp3524
(lp3525
F902.0
aF367.0
aa(lp3526
F0.0
aF0.0
aa(lp3527
F0.0
aF0.0
aa(lp3528
F0.0
aF0.0
aaaa(lp3529
(lp3530
(lp3531
F397.0
aF375.0
aa(lp3532
F0.0
aF0.0
aa(lp3533
F0.0
aF0.0
aa(lp3534
F0.0
aF0.0
aaa(lp3535
(lp3536
F897.0
aF370.0
aa(lp3537
F0.0
aF0.0
aa(lp3538
F0.0
aF0.0
aa(lp3539
F0.0
aF0.0
aaaa(lp3540
(lp3541
(lp3542
F393.0
aF377.0
aa(lp3543
F0.0
aF0.0
aa(lp3544
F0.0
aF0.0
aa(lp3545
F0.0
aF0.0
aaag3535
aa(lp3546
g3541
a(lp3547
(lp3548
F894.0
aF377.0
aa(lp3549
F0.0
aF0.0
aa(lp3550
F0.0
aF0.0
aa(lp3551
F0.0
aF0.0
aaaa(lp3552
(lp3553
(lp3554
F388.0
aF384.0
aa(lp3555
F0.0
aF0.0
aa(lp3556
F0.0
aF0.0
aa(lp3557
F0.0
aF0.0
aaag3547
aa(lp3558
g3553
a(lp3559
(lp3560
F883.0
aF384.0
aa(lp3561
F0.0
aF0.0
aa(lp3562
F0.0
aF0.0
aa(lp3563
F0.0
aF0.0
aaaa(lp3564
(lp3565
(lp3566
F377.0
aF390.0
aa(lp3567
F0.0
aF0.0
aa(lp3568
F0.0
aF0.0
aa(lp3569
F0.0
aF0.0
aaag3559
aa(lp3570
(lp3571
(lp3572
F374.0
aF391.0
aa(lp3573
F0.0
aF0.0
aa(lp3574
F0.0
aF0.0
aa(lp3575
F0.0
aF0.0
aaa(lp3576
(lp3577
F870.0
aF389.0
aa(lp3578
F0.0
aF0.0
aa(lp3579
F0.0
aF0.0
aa(lp3580
F0.0
aF0.0
aaaa(lp3581
(lp3582
(lp3583
F367.0
aF392.0
aa(lp3584
F0.0
aF0.0
aa(lp3585
F0.0
aF0.0
aa(lp3586
F0.0
aF0.0
aaa(lp3587
(lp3588
F863.0
aF390.0
aa(lp3589
F0.0
aF0.0
aa(lp3590
F0.0
aF0.0
aa(lp3591
F0.0
aF0.0
aaaa(lp3592
(lp3593
(lp3594
F360.0
aF393.0
aa(lp3595
F0.0
aF0.0
aa(lp3596
F0.0
aF0.0
aa(lp3597
F0.0
aF0.0
aaag3587
aa(lp3598
g3593
a(lp3599
(lp3600
F848.0
aF393.0
aa(lp3601
F0.0
aF0.0
aa(lp3602
F0.0
aF0.0
aa(lp3603
F0.0
aF0.0
aaaa(lp3604
(lp3605
(lp3606
F343.0
aF394.0
aa(lp3607
F0.0
aF0.0
aa(lp3608
F0.0
aF0.0
aa(lp3609
F0.0
aF0.0
aaag3599
aa(lp3610
g3605
a(lp3611
(lp3612
F832.0
aF392.0
aa(lp3613
F0.0
aF0.0
aa(lp3614
F0.0
aF0.0
aa(lp3615
F0.0
aF0.0
aaaa(lp3616
(lp3617
(lp3618
F328.0
aF392.0
aa(lp3619
F0.0
aF0.0
aa(lp3620
F0.0
aF0.0
aa(lp3621
F0.0
aF0.0
aaag3611
aa(lp3622
(lp3623
(lp3624
F322.0
aF391.0
aa(lp3625
F0.0
aF0.0
aa(lp3626
F0.0
aF0.0
aa(lp3627
F0.0
aF0.0
aaa(lp3628
(lp3629
F818.0
aF391.0
aa(lp3630
F0.0
aF0.0
aa(lp3631
F0.0
aF0.0
aa(lp3632
F0.0
aF0.0
aaaa(lp3633
(lp3634
(lp3635
F318.0
aF390.0
aa(lp3636
F0.0
aF0.0
aa(lp3637
F0.0
aF0.0
aa(lp3638
F0.0
aF0.0
aaa(lp3639
(lp3640
F815.0
aF388.0
aa(lp3641
F0.0
aF0.0
aa(lp3642
F0.0
aF0.0
aa(lp3643
F0.0
aF0.0
aaaa(lp3644
(lp3645
(lp3646
F312.0
aF387.0
aa(lp3647
F0.0
aF0.0
aa(lp3648
F0.0
aF0.0
aa(lp3649
F0.0
aF0.0
aaag3639
aa(lp3650
g3645
a(lp3651
(lp3652
F808.0
aF384.0
aa(lp3653
F0.0
aF0.0
aa(lp3654
F0.0
aF0.0
aa(lp3655
F0.0
aF0.0
aaaa(lp3656
(lp3657
(lp3658
F310.0
aF383.0
aa(lp3659
F0.0
aF0.0
aa(lp3660
F0.0
aF0.0
aa(lp3661
F0.0
aF0.0
aaag3651
aa(lp3662
g3657
a(lp3663
(lp3664
F808.0
aF379.0
aa(lp3665
F0.0
aF0.0
aa(lp3666
F0.0
aF0.0
aa(lp3667
F0.0
aF0.0
aaaa(lp3668
(lp3669
(lp3670
F311.0
aF377.0
aa(lp3671
F0.0
aF0.0
aa(lp3672
F0.0
aF0.0
aa(lp3673
F0.0
aF0.0
aaag3663
aa(lp3674
(lp3675
(lp3676
F312.0
aF375.0
aa(lp3677
F0.0
aF0.0
aa(lp3678
F0.0
aF0.0
aa(lp3679
F0.0
aF0.0
aaa(lp3680
(lp3681
F809.0
aF374.0
aa(lp3682
F0.0
aF0.0
aa(lp3683
F0.0
aF0.0
aa(lp3684
F0.0
aF0.0
aaaa(lp3685
(lp3686
(lp3687
F313.0
aF373.0
aa(lp3688
F0.0
aF0.0
aa(lp3689
F0.0
aF0.0
aa(lp3690
F0.0
aF0.0
aaa(lp3691
(lp3692
F813.0
aF371.0
aa(lp3693
F0.0
aF0.0
aa(lp3694
F0.0
aF0.0
aa(lp3695
F0.0
aF0.0
aaaa(lp3696
(lp3697
(lp3698
F318.0
aF370.0
aa(lp3699
F0.0
aF0.0
aa(lp3700
F0.0
aF0.0
aa(lp3701
F0.0
aF0.0
aaag3691
aa(lp3702
g3697
a(lp3703
(lp3704
F820.0
aF368.0
aa(lp3705
F0.0
aF0.0
aa(lp3706
F0.0
aF0.0
aa(lp3707
F0.0
aF0.0
aaaa(lp3708
(lp3709
(lp3710
F325.0
aF367.0
aa(lp3711
F0.0
aF0.0
aa(lp3712
F0.0
aF0.0
aa(lp3713
F0.0
aF0.0
aaag3703
aa(lp3714
g3709
a(lp3715
(lp3716
F831.0
aF363.0
aa(lp3717
F0.0
aF0.0
aa(lp3718
F0.0
aF0.0
aa(lp3719
F0.0
aF0.0
aaaa(lp3720
(lp3721
(lp3722
F336.0
aF363.0
aa(lp3723
F0.0
aF0.0
aa(lp3724
F0.0
aF0.0
aa(lp3725
F0.0
aF0.0
aaag3715
aa(lp3726
(lp3727
(lp3728
F342.0
aF361.0
aa(lp3729
F0.0
aF0.0
aa(lp3730
F0.0
aF0.0
aa(lp3731
F0.0
aF0.0
aaa(lp3732
(lp3733
F842.0
aF359.0
aa(lp3734
F0.0
aF0.0
aa(lp3735
F0.0
aF0.0
aa(lp3736
F0.0
aF0.0
aaaa(lp3737
g3727
a(lp3738
(lp3739
F848.0
aF357.0
aa(lp3740
F0.0
aF0.0
aa(lp3741
F0.0
aF0.0
aa(lp3742
F0.0
aF0.0
aaaa(lp3743
(lp3744
(lp3745
F354.0
aF360.0
aa(lp3746
F0.0
aF0.0
aa(lp3747
F0.0
aF0.0
aa(lp3748
F0.0
aF0.0
aaag3738
aa(lp3749
g3744
a(lp3750
(lp3751
F864.0
aF356.0
aa(lp3752
F0.0
aF0.0
aa(lp3753
F0.0
aF0.0
aa(lp3754
F0.0
aF0.0
aaaa(lp3755
(lp3756
(lp3757
F370.0
aF359.0
aa(lp3758
F0.0
aF0.0
aa(lp3759
F0.0
aF0.0
aa(lp3760
F0.0
aF0.0
aaag3750
aa(lp3761
g3756
a(lp3762
(lp3763
F888.0
aF356.0
aa(lp3764
F0.0
aF0.0
aa(lp3765
F0.0
aF0.0
aa(lp3766
F0.0
aF0.0
aaaa(lp3767
(lp3768
(lp3769
F390.0
aF361.0
aa(lp3770
F0.0
aF0.0
aa(lp3771
F0.0
aF0.0
aa(lp3772
F0.0
aF0.0
aaag3762
aa(lp3773
(lp3774
(lp3775
F400.0
aF362.0
aa(lp3776
F0.0
aF0.0
aa(lp3777
F0.0
aF0.0
aa(lp3778
F0.0
aF0.0
aaa(lp3779
(lp3780
F909.0
aF360.0
aa(lp3781
F0.0
aF0.0
aa(lp3782
F0.0
aF0.0
aa(lp3783
F0.0
aF0.0
aaaa(lp3784
(lp3785
(lp3786
F410.0
aF366.0
aa(lp3787
F0.0
aF0.0
aa(lp3788
F0.0
aF0.0
aa(lp3789
F0.0
aF0.0
aaa(lp3790
(lp3791
F920.0
aF363.0
aa(lp3792
F0.0
aF0.0
aa(lp3793
F0.0
aF0.0
aa(lp3794
F0.0
aF0.0
aaaa(lp3795
(lp3796
(lp3797
F427.0
aF368.0
aa(lp3798
F0.0
aF0.0
aa(lp3799
F0.0
aF0.0
aa(lp3800
F0.0
aF0.0
aaag3790
aa(lp3801
g3796
a(lp3802
(lp3803
F942.0
aF368.0
aa(lp3804
F0.0
aF0.0
aa(lp3805
F0.0
aF0.0
aa(lp3806
F0.0
aF0.0
aaaa(lp3807
(lp3808
(lp3809
F447.0
aF376.0
aa(lp3810
F0.0
aF0.0
aa(lp3811
F0.0
aF0.0
aa(lp3812
F0.0
aF0.0
aaag3802
aa(lp3813
g3808
a(lp3814
(lp3815
F960.0
aF374.0
aa(lp3816
F0.0
aF0.0
aa(lp3817
F0.0
aF0.0
aa(lp3818
F0.0
aF0.0
aaaa(lp3819
(lp3820
(lp3821
F465.0
aF384.0
aa(lp3822
F0.0
aF0.0
aa(lp3823
F0.0
aF0.0
aa(lp3824
F0.0
aF0.0
aaag3814
aa(lp3825
(lp3826
(lp3827
F473.0
aF389.0
aa(lp3828
F0.0
aF0.0
aa(lp3829
F0.0
aF0.0
aa(lp3830
F0.0
aF0.0
aaa(lp3831
(lp3832
F968.0
aF379.0
aa(lp3833
F0.0
aF0.0
aa(lp3834
F0.0
aF0.0
aa(lp3835
F0.0
aF0.0
aaaa(lp3836
g3826
a(lp3837
(lp3838
F984.0
aF387.0
aa(lp3839
F0.0
aF0.0
aa(lp3840
F0.0
aF0.0
aa(lp3841
F0.0
aF0.0
aaaa(lp3842
(lp3843
(lp3844
F487.0
aF397.0
aa(lp3845
F0.0
aF0.0
aa(lp3846
F0.0
aF0.0
aa(lp3847
F0.0
aF0.0
aaag3837
aa(lp3848
g3843
a(lp3849
(lp3850
F997.0
aF395.0
aa(lp3851
F0.0
aF0.0
aa(lp3852
F0.0
aF0.0
aa(lp3853
F0.0
aF0.0
aaaa(lp3854
(lp3855
(lp3856
F496.0
aF405.0
aa(lp3857
F0.0
aF0.0
aa(lp3858
F0.0
aF0.0
aa(lp3859
F0.0
aF0.0
aaag3849
aa(lp3860
g3855
a(lp3861
(lp3862
F1002.0
aF402.0
aa(lp3863
F0.0
aF0.0
aa(lp3864
F0.0
aF0.0
aa(lp3865
F0.0
aF0.0
aaaa(lp3866
g3855
a(lp3867
(lp3868
F1006.0
aF405.0
aa(lp3869
F0.0
aF0.0
aa(lp3870
F0.0
aF0.0
aa(lp3871
F0.0
aF0.0
aaaa(lp3872
(lp3873
(lp3874
F503.0
aF412.0
aa(lp3875
F0.0
aF0.0
aa(lp3876
F0.0
aF0.0
aa(lp3877
F0.0
aF0.0
aaag3867
aa(lp3878
g3873
a(lp3879
(lp3880
F1008.0
aF412.0
aa(lp3881
F0.0
aF0.0
aa(lp3882
F0.0
aF0.0
aa(lp3883
F0.0
aF0.0
aaaa(lp3884
(lp3885
(lp3886
F504.0
aF420.0
aa(lp3887
F0.0
aF0.0
aa(lp3888
F0.0
aF0.0
aa(lp3889
F0.0
aF0.0
aaag3879
aa(lp3890
g3885
a(lp3891
(lp3892
F1008.0
aF420.0
aa(lp3893
F0.0
aF0.0
aa(lp3894
F0.0
aF0.0
aa(lp3895
F0.0
aF0.0
aaaa(lp3896
(lp3897
(lp3898
F504.0
aF430.0
aa(lp3899
F0.0
aF0.0
aa(lp3900
F0.0
aF0.0
aa(lp3901
F0.0
aF0.0
aaag3891
aa(lp3902
(lp3903
(lp3904
F503.0
aF432.0
aa(lp3905
F0.0
aF0.0
aa(lp3906
F0.0
aF0.0
aa(lp3907
F0.0
aF0.0
aaa(lp3908
(lp3909
F1007.0
aF423.0
aa(lp3910
F0.0
aF0.0
aa(lp3911
F0.0
aF0.0
aa(lp3912
F0.0
aF0.0
aaaa(lp3913
g3903
a(lp3914
(lp3915
F1000.0
aF429.0
aa(lp3916
F0.0
aF0.0
aa(lp3917
F0.0
aF0.0
aa(lp3918
F0.0
aF0.0
aaaa(lp3919
(lp3920
(lp3921
F498.0
aF438.0
aa(lp3922
F0.0
aF0.0
aa(lp3923
F0.0
aF0.0
aa(lp3924
F0.0
aF0.0
aaag3914
aa(lp3925
g3920
a(lp3926
(lp3927
F993.0
aF434.0
aa(lp3928
F0.0
aF0.0
aa(lp3929
F0.0
aF0.0
aa(lp3930
F0.0
aF0.0
aaaa(lp3931
(lp3932
(lp3933
F492.0
aF440.0
aa(lp3934
F0.0
aF0.0
aa(lp3935
F0.0
aF0.0
aa(lp3936
F0.0
aF0.0
aaag3926
aa(lp3937
g3932
a(lp3938
(lp3939
F986.0
aF439.0
aa(lp3940
F0.0
aF0.0
aa(lp3941
F0.0
aF0.0
aa(lp3942
F0.0
aF0.0
aaaa(lp3943
(lp3944
(lp3945
F488.0
aF443.0
aa(lp3946
F0.0
aF0.0
aa(lp3947
F0.0
aF0.0
aa(lp3948
F0.0
aF0.0
aaag3938
aa(lp3949
(lp3950
(lp3951
F480.0
aF447.0
aa(lp3952
F0.0
aF0.0
aa(lp3953
F0.0
aF0.0
aa(lp3954
F0.0
aF0.0
aaag3938
aa(lp3955
g3950
a(lp3956
(lp3957
F974.0
aF444.0
aa(lp3958
F0.0
aF0.0
aa(lp3959
F0.0
aF0.0
aa(lp3960
F0.0
aF0.0
aaaa(lp3961
(lp3962
(lp3963
F471.0
aF449.0
aa(lp3964
F0.0
aF0.0
aa(lp3965
F0.0
aF0.0
aa(lp3966
F0.0
aF0.0
aaag3956
aa(lp3967
g3962
a(lp3968
(lp3969
F960.0
aF446.0
aa(lp3970
F0.0
aF0.0
aa(lp3971
F0.0
aF0.0
aa(lp3972
F0.0
aF0.0
aaaa(lp3973
(lp3974
(lp3975
F455.0
aF451.0
aa(lp3976
F0.0
aF0.0
aa(lp3977
F0.0
aF0.0
aa(lp3978
F0.0
aF0.0
aaag3968
aa(lp3979
g3974
a(lp3980
(lp3981
F943.0
aF448.0
aa(lp3982
F0.0
aF0.0
aa(lp3983
F0.0
aF0.0
aa(lp3984
F0.0
aF0.0
aaaa(lp3985
(lp3986
(lp3987
F447.0
aF452.0
aa(lp3988
F0.0
aF0.0
aa(lp3989
F0.0
aF0.0
aa(lp3990
F0.0
aF0.0
aaag3980
aa(lp3991
(lp3992
(lp3993
F431.0
aF451.0
aa(lp3994
F0.0
aF0.0
aa(lp3995
F0.0
aF0.0
aa(lp3996
F0.0
aF0.0
aaag3980
aa(lp3997
g3992
a(lp3998
(lp3999
F918.0
aF448.0
aa(lp4000
F0.0
aF0.0
aa(lp4001
F0.0
aF0.0
aa(lp4002
F0.0
aF0.0
aaaa(lp4003
(lp4004
(lp4005
F415.0
aF450.0
aa(lp4006
F0.0
aF0.0
aa(lp4007
F0.0
aF0.0
aa(lp4008
F0.0
aF0.0
aaag3998
aa(lp4009
g4004
a(lp4010
(lp4011
F901.0
aF447.0
aa(lp4012
F0.0
aF0.0
aa(lp4013
F0.0
aF0.0
aa(lp4014
F0.0
aF0.0
aaaa(lp4015
(lp4016
(lp4017
F399.0
aF448.0
aa(lp4018
F0.0
aF0.0
aa(lp4019
F0.0
aF0.0
aa(lp4020
F0.0
aF0.0
aaag4010
aa(lp4021
g4016
a(lp4022
(lp4023
F883.0
aF444.0
aa(lp4024
F0.0
aF0.0
aa(lp4025
F0.0
aF0.0
aa(lp4026
F0.0
aF0.0
aaaa(lp4027
(lp4028
(lp4029
F391.0
aF446.0
aa(lp4030
F0.0
aF0.0
aa(lp4031
F0.0
aF0.0
aa(lp4032
F0.0
aF0.0
aaa(lp4033
(lp4034
F874.0
aF441.0
aa(lp4035
F0.0
aF0.0
aa(lp4036
F0.0
aF0.0
aa(lp4037
F0.0
aF0.0
aaaa(lp4038
(lp4039
(lp4040
F374.0
aF440.0
aa(lp4041
F0.0
aF0.0
aa(lp4042
F0.0
aF0.0
aa(lp4043
F0.0
aF0.0
aaag4033
aa(lp4044
g4039
a(lp4045
(lp4046
F861.0
aF437.0
aa(lp4047
F0.0
aF0.0
aa(lp4048
F0.0
aF0.0
aa(lp4049
F0.0
aF0.0
aaaa(lp4050
(lp4051
(lp4052
F360.0
aF435.0
aa(lp4053
F0.0
aF0.0
aa(lp4054
F0.0
aF0.0
aa(lp4055
F0.0
aF0.0
aaag4045
aa(lp4056
g4051
a(lp4057
(lp4058
F849.0
aF431.0
aa(lp4059
F0.0
aF0.0
aa(lp4060
F0.0
aF0.0
aa(lp4061
F0.0
aF0.0
aaaa(lp4062
(lp4063
(lp4064
F353.0
aF430.0
aa(lp4065
F0.0
aF0.0
aa(lp4066
F0.0
aF0.0
aa(lp4067
F0.0
aF0.0
aaag4057
aa(lp4068
g4063
a(lp4069
(lp4070
F848.0
aF428.0
aa(lp4071
F0.0
aF0.0
aa(lp4072
F0.0
aF0.0
aa(lp4073
F0.0
aF0.0
aaaa(lp4074
g4063
a(lp4075
(lp4076
F844.0
aF424.0
aa(lp4077
F0.0
aF0.0
aa(lp4078
F0.0
aF0.0
aa(lp4079
F0.0
aF0.0
aaaa(lp4080
(lp4081
(lp4082
F350.0
aF423.0
aa(lp4083
F0.0
aF0.0
aa(lp4084
F0.0
aF0.0
aa(lp4085
F0.0
aF0.0
aaag4075
aa(lp4086
g4081
a(lp4087
(lp4088
F845.0
aF418.0
aa(lp4089
F0.0
aF0.0
aa(lp4090
F0.0
aF0.0
aa(lp4091
F0.0
aF0.0
aaaa(lp4092
(lp4093
(lp4094
F351.0
aF417.0
aa(lp4095
F0.0
aF0.0
aa(lp4096
F0.0
aF0.0
aa(lp4097
F0.0
aF0.0
aaag4087
aa(lp4098
g4093
a(lp4099
(lp4100
F848.0
aF414.0
aa(lp4101
F0.0
aF0.0
aa(lp4102
F0.0
aF0.0
aa(lp4103
F0.0
aF0.0
aaaa(lp4104
(lp4105
(lp4106
F352.0
aF416.0
aa(lp4107
F0.0
aF0.0
aa(lp4108
F0.0
aF0.0
aa(lp4109
F0.0
aF0.0
aaag4099
aa(lp4110
(lp4111
(lp4112
F354.0
aF415.0
aa(lp4113
F0.0
aF0.0
aa(lp4114
F0.0
aF0.0
aa(lp4115
F0.0
aF0.0
aaag4099
aa(lp4116
g4111
a(lp4117
(lp4118
F856.0
aF411.0
aa(lp4119
F0.0
aF0.0
aa(lp4120
F0.0
aF0.0
aa(lp4121
F0.0
aF0.0
aaaa(lp4122
(lp4123
(lp4124
F360.0
aF413.0
aa(lp4125
F0.0
aF0.0
aa(lp4126
F0.0
aF0.0
aa(lp4127
F0.0
aF0.0
aaag4117
aa(lp4128
(lp4129
(lp4130
F367.0
aF413.0
aa(lp4131
F0.0
aF0.0
aa(lp4132
F0.0
aF0.0
aa(lp4133
F0.0
aF0.0
aaa(lp4134
(lp4135
F864.0
aF411.0
aa(lp4136
F0.0
aF0.0
aa(lp4137
F0.0
aF0.0
aa(lp4138
F0.0
aF0.0
aaaa(lp4139
(lp4140
(lp4141
F377.0
aF415.0
aa(lp4142
F0.0
aF0.0
aa(lp4143
F0.0
aF0.0
aa(lp4144
F0.0
aF0.0
aaa(lp4145
(lp4146
F869.0
aF411.0
aa(lp4147
F0.0
aF0.0
aa(lp4148
F0.0
aF0.0
aa(lp4149
F0.0
aF0.0
aaaa(lp4150
g4140
a(lp4151
(lp4152
F880.0
aF412.0
aa(lp4153
F0.0
aF0.0
aa(lp4154
F0.0
aF0.0
aa(lp4155
F0.0
aF0.0
aaaa(lp4156
(lp4157
(lp4158
F388.0
aF416.0
aa(lp4159
F0.0
aF0.0
aa(lp4160
F0.0
aF0.0
aa(lp4161
F0.0
aF0.0
aaag4151
aa(lp4162
(lp4163
(lp4164
F392.0
aF418.0
aa(lp4165
F0.0
aF0.0
aa(lp4166
F0.0
aF0.0
aa(lp4167
F0.0
aF0.0
aaag4151
aa(lp4168
g4163
a(lp4169
(lp4170
F903.0
aF421.0
aa(lp4171
F0.0
aF0.0
aa(lp4172
F0.0
aF0.0
aa(lp4173
F0.0
aF0.0
aaaa(lp4174
(lp4175
(lp4176
F405.0
aF424.0
aa(lp4177
F0.0
aF0.0
aa(lp4178
F0.0
aF0.0
aa(lp4179
F0.0
aF0.0
aaag4169
aa(lp4180
(lp4181
(lp4182
F409.0
aF426.0
aa(lp4183
F0.0
aF0.0
aa(lp4184
F0.0
aF0.0
aa(lp4185
F0.0
aF0.0
aaa(lp4186
(lp4187
F906.0
aF424.0
aa(lp4188
F0.0
aF0.0
aa(lp4189
F0.0
aF0.0
aa(lp4190
F0.0
aF0.0
aaaa(lp4191
(lp4192
(lp4193
F423.0
aF434.0
aa(lp4194
F0.0
aF0.0
aa(lp4195
F0.0
aF0.0
aa(lp4196
F0.0
aF0.0
aaa(lp4197
(lp4198
F912.0
aF427.0
aa(lp4199
F0.0
aF0.0
aa(lp4200
F0.0
aF0.0
aa(lp4201
F0.0
aF0.0
aaaa(lp4202
g4192
a(lp4203
(lp4204
F926.0
aF436.0
aa(lp4205
F0.0
aF0.0
aa(lp4206
F0.0
aF0.0
aa(lp4207
F0.0
aF0.0
aaaa(lp4208
g4192
ag4203
aa(lp4209
(lp4210
(lp4211
F433.0
aF444.0
aa(lp4212
F0.0
aF0.0
aa(lp4213
F0.0
aF0.0
aa(lp4214
F0.0
aF0.0
aaag4203
aa(lp4215
g4210
a(lp4216
(lp4217
F939.0
aF451.0
aa(lp4218
F0.0
aF0.0
aa(lp4219
F0.0
aF0.0
aa(lp4220
F0.0
aF0.0
aaaa(lp4221
(lp4222
(lp4223
F445.0
aF455.0
aa(lp4224
F0.0
aF0.0
aa(lp4225
F0.0
aF0.0
aa(lp4226
F0.0
aF0.0
aaag4216
aa(lp4227
(lp4228
(lp4229
F448.0
aF459.0
aa(lp4230
F0.0
aF0.0
aa(lp4231
F0.0
aF0.0
aa(lp4232
F0.0
aF0.0
aaa(lp4233
(lp4234
F944.0
aF457.0
aa(lp4235
F0.0
aF0.0
aa(lp4236
F0.0
aF0.0
aa(lp4237
F0.0
aF0.0
aaaa(lp4238
(lp4239
(lp4240
F451.0
aF464.0
aa(lp4241
F0.0
aF0.0
aa(lp4242
F0.0
aF0.0
aa(lp4243
F0.0
aF0.0
aaa(lp4244
(lp4245
F944.0
aF461.0
aa(lp4246
F0.0
aF0.0
aa(lp4247
F0.0
aF0.0
aa(lp4248
F0.0
aF0.0
aaaa(lp4249
(lp4250
(lp4251
F454.0
aF470.0
aa(lp4252
F0.0
aF0.0
aa(lp4253
F0.0
aF0.0
aa(lp4254
F0.0
aF0.0
aaa(lp4255
(lp4256
F946.0
aF467.0
aa(lp4257
F0.0
aF0.0
aa(lp4258
F0.0
aF0.0
aa(lp4259
F0.0
aF0.0
aaaa(lp4260
g4250
a(lp4261
(lp4262
F948.0
aF471.0
aa(lp4263
F0.0
aF0.0
aa(lp4264
F0.0
aF0.0
aa(lp4265
F0.0
aF0.0
aaaa(lp4266
(lp4267
(lp4268
F455.0
aF479.0
aa(lp4269
F0.0
aF0.0
aa(lp4270
F0.0
aF0.0
aa(lp4271
F0.0
aF0.0
aaag4261
aa(lp4272
g4267
a(lp4273
(lp4274
F946.0
aF480.0
aa(lp4275
F0.0
aF0.0
aa(lp4276
F0.0
aF0.0
aa(lp4277
F0.0
aF0.0
aaaa(lp4278
(lp4279
(lp4280
F454.0
aF487.0
aa(lp4281
F0.0
aF0.0
aa(lp4282
F0.0
aF0.0
aa(lp4283
F0.0
aF0.0
aaa(lp4284
(lp4285
F944.0
aF484.0
aa(lp4286
F0.0
aF0.0
aa(lp4287
F0.0
aF0.0
aa(lp4288
F0.0
aF0.0
aaaa(lp4289
(lp4290
(lp4291
F452.0
aF488.0
aa(lp4292
F0.0
aF0.0
aa(lp4293
F0.0
aF0.0
aa(lp4294
F0.0
aF0.0
aaa(lp4295
(lp4296
F944.0
aF486.0
aa(lp4297
F0.0
aF0.0
aa(lp4298
F0.0
aF0.0
aa(lp4299
F0.0
aF0.0
aaaa(lp4300
(lp4301
(lp4302
F448.0
aF492.0
aa(lp4303
F0.0
aF0.0
aa(lp4304
F0.0
aF0.0
aa(lp4305
F0.0
aF0.0
aaa(lp4306
(lp4307
F939.0
aF489.0
aa(lp4308
F0.0
aF0.0
aa(lp4309
F0.0
aF0.0
aa(lp4310
F0.0
aF0.0
aaaa(lp4311
(lp4312
(lp4313
F445.0
aF495.0
aa(lp4314
F0.0
aF0.0
aa(lp4315
F0.0
aF0.0
aa(lp4316
F0.0
aF0.0
aaag4306
aa(lp4317
g4312
a(lp4318
(lp4319
F929.0
aF495.0
aa(lp4320
F0.0
aF0.0
aa(lp4321
F0.0
aF0.0
aa(lp4322
F0.0
aF0.0
aaaa(lp4323
(lp4324
(lp4325
F432.0
aF497.0
aa(lp4326
F0.0
aF0.0
aa(lp4327
F0.0
aF0.0
aa(lp4328
F0.0
aF0.0
aaag4318
aa(lp4329
g4324
a(lp4330
(lp4331
F920.0
aF498.0
aa(lp4332
F0.0
aF0.0
aa(lp4333
F0.0
aF0.0
aa(lp4334
F0.0
aF0.0
aaaa(lp4335
(lp4336
(lp4337
F421.0
aF498.0
aa(lp4338
F0.0
aF0.0
aa(lp4339
F0.0
aF0.0
aa(lp4340
F0.0
aF0.0
aaa(lp4341
(lp4342
F912.0
aF498.0
aa(lp4343
F0.0
aF0.0
aa(lp4344
F0.0
aF0.0
aa(lp4345
F0.0
aF0.0
aaaa(lp4346
(lp4347
(lp4348
F414.0
aF498.0
aa(lp4349
F0.0
aF0.0
aa(lp4350
F0.0
aF0.0
aa(lp4351
F0.0
aF0.0
aaa(lp4352
(lp4353
F904.0
aF498.0
aa(lp4354
F0.0
aF0.0
aa(lp4355
F0.0
aF0.0
aa(lp4356
F0.0
aF0.0
aaaa(lp4357
(lp4358
(lp4359
F406.0
aF497.0
aa(lp4360
F0.0
aF0.0
aa(lp4361
F0.0
aF0.0
aa(lp4362
F0.0
aF0.0
aaa(lp4363
(lp4364
F896.0
aF498.0
aa(lp4365
F0.0
aF0.0
aa(lp4366
F0.0
aF0.0
aa(lp4367
F0.0
aF0.0
aaaa(lp4368
(lp4369
(lp4370
F397.0
aF496.0
aa(lp4371
F0.0
aF0.0
aa(lp4372
F0.0
aF0.0
aa(lp4373
F0.0
aF0.0
aaag4363
aa(lp4374
g4369
a(lp4375
(lp4376
F875.0
aF495.0
aa(lp4377
F0.0
aF0.0
aa(lp4378
F0.0
aF0.0
aa(lp4379
F0.0
aF0.0
aaaa(lp4380
(lp4381
(lp4382
F379.0
aF492.0
aa(lp4383
F0.0
aF0.0
aa(lp4384
F0.0
aF0.0
aa(lp4385
F0.0
aF0.0
aaag4375
aa(lp4386
g4381
a(lp4387
(lp4388
F856.0
aF490.0
aa(lp4389
F0.0
aF0.0
aa(lp4390
F0.0
aF0.0
aa(lp4391
F0.0
aF0.0
aaaa(lp4392
(lp4393
(lp4394
F360.0
aF486.0
aa(lp4395
F0.0
aF0.0
aa(lp4396
F0.0
aF0.0
aa(lp4397
F0.0
aF0.0
aaa(lp4398
(lp4399
F848.0
aF485.0
aa(lp4400
F0.0
aF0.0
aa(lp4401
F0.0
aF0.0
aa(lp4402
F0.0
aF0.0
aaaa(lp4403
(lp4404
(lp4405
F351.0
aF482.0
aa(lp4406
F0.0
aF0.0
aa(lp4407
F0.0
aF0.0
aa(lp4408
F0.0
aF0.0
aaa(lp4409
(lp4410
F839.0
aF482.0
aa(lp4411
F0.0
aF0.0
aa(lp4412
F0.0
aF0.0
aa(lp4413
F0.0
aF0.0
aaaa(lp4414
g4404
a(lp4415
(lp4416
F829.0
aF479.0
aa(lp4417
F0.0
aF0.0
aa(lp4418
F0.0
aF0.0
aa(lp4419
F0.0
aF0.0
aaaa(lp4420
(lp4421
(lp4422
F333.0
aF474.0
aa(lp4423
F0.0
aF0.0
aa(lp4424
F0.0
aF0.0
aa(lp4425
F0.0
aF0.0
aaag4415
aa(lp4426
g4421
a(lp4427
(lp4428
F810.0
aF471.0
aa(lp4429
F0.0
aF0.0
aa(lp4430
F0.0
aF0.0
aa(lp4431
F0.0
aF0.0
aaaa(lp4432
(lp4433
(lp4434
F314.0
aF465.0
aa(lp4435
F0.0
aF0.0
aa(lp4436
F0.0
aF0.0
aa(lp4437
F0.0
aF0.0
aaag4427
aa(lp4438
g4433
a(lp4439
(lp4440
F793.0
aF462.0
aa(lp4441
F0.0
aF0.0
aa(lp4442
F0.0
aF0.0
aa(lp4443
F0.0
aF0.0
aaaa(lp4444
(lp4445
(lp4446
F297.0
aF456.0
aa(lp4447
F0.0
aF0.0
aa(lp4448
F0.0
aF0.0
aa(lp4449
F0.0
aF0.0
aaa(lp4450
(lp4451
F785.0
aF457.0
aa(lp4452
F0.0
aF0.0
aa(lp4453
F0.0
aF0.0
aa(lp4454
F0.0
aF0.0
aaaa(lp4455
(lp4456
(lp4457
F290.0
aF452.0
aa(lp4458
F0.0
aF0.0
aa(lp4459
F0.0
aF0.0
aa(lp4460
F0.0
aF0.0
aaag4450
aa(lp4461
g4456
a(lp4462
(lp4463
F772.0
aF448.0
aa(lp4464
F0.0
aF0.0
aa(lp4465
F0.0
aF0.0
aa(lp4466
F0.0
aF0.0
aaaa(lp4467
(lp4468
(lp4469
F278.0
aF441.0
aa(lp4470
F0.0
aF0.0
aa(lp4471
F0.0
aF0.0
aa(lp4472
F0.0
aF0.0
aaag4462
aa(lp4473
g4468
a(lp4474
(lp4475
F760.0
aF438.0
aa(lp4476
F0.0
aF0.0
aa(lp4477
F0.0
aF0.0
aa(lp4478
F0.0
aF0.0
aaaa(lp4479
(lp4480
(lp4481
F268.0
aF432.0
aa(lp4482
F0.0
aF0.0
aa(lp4483
F0.0
aF0.0
aa(lp4484
F0.0
aF0.0
aaag4474
aa(lp4485
g4480
ag4474
aa(lp4486
g4480
a(lp4487
(lp4488
F752.0
aF425.0
aa(lp4489
F0.0
aF0.0
aa(lp4490
F0.0
aF0.0
aa(lp4491
F0.0
aF0.0
aaaa(lp4492
(lp4493
(lp4494
F263.0
aF419.0
aa(lp4495
F0.0
aF0.0
aa(lp4496
F0.0
aF0.0
aa(lp4497
F0.0
aF0.0
aaag4487
aa(lp4498
g4493
a(lp4499
(lp4500
F752.0
aF418.0
aa(lp4501
F0.0
aF0.0
aa(lp4502
F0.0
aF0.0
aa(lp4503
F0.0
aF0.0
aaaa(lp4504
(lp4505
(lp4506
F263.0
aF413.0
aa(lp4507
F0.0
aF0.0
aa(lp4508
F0.0
aF0.0
aa(lp4509
F0.0
aF0.0
aaag4499
aa(lp4510
g4505
a(lp4511
(lp4512
F753.0
aF415.0
aa(lp4513
F0.0
aF0.0
aa(lp4514
F0.0
aF0.0
aa(lp4515
F0.0
aF0.0
aaaa(lp4516
g4505
a(lp4517
(lp4518
F759.0
aF409.0
aa(lp4519
F0.0
aF0.0
aa(lp4520
F0.0
aF0.0
aa(lp4521
F0.0
aF0.0
aaaa(lp4522
(lp4523
(lp4524
F272.0
aF404.0
aa(lp4525
F0.0
aF0.0
aa(lp4526
F0.0
aF0.0
aa(lp4527
F0.0
aF0.0
aaag4517
aa(lp4528
g4523
a(lp4529
(lp4530
F768.0
aF404.0
aa(lp4531
F0.0
aF0.0
aa(lp4532
F0.0
aF0.0
aa(lp4533
F0.0
aF0.0
aaaa(lp4534
(lp4535
(lp4536
F281.0
aF401.0
aa(lp4537
F0.0
aF0.0
aa(lp4538
F0.0
aF0.0
aa(lp4539
F0.0
aF0.0
aaag4529
aa(lp4540
g4535
a(lp4541
(lp4542
F777.0
aF401.0
aa(lp4543
F0.0
aF0.0
aa(lp4544
F0.0
aF0.0
aa(lp4545
F0.0
aF0.0
aaaa(lp4546
g4535
a(lp4547
(lp4548
F783.0
aF401.0
aa(lp4549
F0.0
aF0.0
aa(lp4550
F0.0
aF0.0
aa(lp4551
F0.0
aF0.0
aaaa(lp4552
(lp4553
(lp4554
F298.0
aF399.0
aa(lp4555
F0.0
aF0.0
aa(lp4556
F0.0
aF0.0
aa(lp4557
F0.0
aF0.0
aaag4547
aa(lp4558
g4553
a(lp4559
(lp4560
F796.0
aF400.0
aa(lp4561
F0.0
aF0.0
aa(lp4562
F0.0
aF0.0
aa(lp4563
F0.0
aF0.0
aaaa(lp4564
(lp4565
(lp4566
F311.0
aF400.0
aa(lp4567
F0.0
aF0.0
aa(lp4568
F0.0
aF0.0
aa(lp4569
F0.0
aF0.0
aaag4559
aa(lp4570
g4565
a(lp4571
(lp4572
F803.0
aF400.0
aa(lp4573
F0.0
aF0.0
aa(lp4574
F0.0
aF0.0
aa(lp4575
F0.0
aF0.0
aaaa(lp4576
g4565
a(lp4577
(lp4578
F816.0
aF402.0
aa(lp4579
F0.0
aF0.0
aa(lp4580
F0.0
aF0.0
aa(lp4581
F0.0
aF0.0
aaaa(lp4582
(lp4583
(lp4584
F334.0
aF406.0
aa(lp4585
F0.0
aF0.0
aa(lp4586
F0.0
aF0.0
aa(lp4587
F0.0
aF0.0
aaag4577
aa(lp4588
g4583
a(lp4589
(lp4590
F832.0
aF405.0
aa(lp4591
F0.0
aF0.0
aa(lp4592
F0.0
aF0.0
aa(lp4593
F0.0
aF0.0
aaaa(lp4594
(lp4595
(lp4596
F350.0
aF412.0
aa(lp4597
F0.0
aF0.0
aa(lp4598
F0.0
aF0.0
aa(lp4599
F0.0
aF0.0
aaag4589
aa(lp4600
g4595
a(lp4601
(lp4602
F848.0
aF412.0
aa(lp4603
F0.0
aF0.0
aa(lp4604
F0.0
aF0.0
aa(lp4605
F0.0
aF0.0
aaaa(lp4606
g4595
ag4601
aa(lp4607
(lp4608
(lp4609
F365.0
aF422.0
aa(lp4610
F0.0
aF0.0
aa(lp4611
F0.0
aF0.0
aa(lp4612
F0.0
aF0.0
aaag4601
aa(lp4613
(lp4614
(lp4615
F373.0
aF425.0
aa(lp4616
F0.0
aF0.0
aa(lp4617
F0.0
aF0.0
aa(lp4618
F0.0
aF0.0
aaa(lp4619
(lp4620
F873.0
aF430.0
aa(lp4621
F0.0
aF0.0
aa(lp4622
F0.0
aF0.0
aa(lp4623
F0.0
aF0.0
aaaa(lp4624
(lp4625
(lp4626
F380.0
aF432.0
aa(lp4627
F0.0
aF0.0
aa(lp4628
F0.0
aF0.0
aa(lp4629
F0.0
aF0.0
aaag4619
aa(lp4630
(lp4631
(lp4632
F385.0
aF438.0
aa(lp4633
F0.0
aF0.0
aa(lp4634
F0.0
aF0.0
aa(lp4635
F0.0
aF0.0
aaa(lp4636
(lp4637
F886.0
aF441.0
aa(lp4638
F0.0
aF0.0
aa(lp4639
F0.0
aF0.0
aa(lp4640
F0.0
aF0.0
aaaa(lp4641
g4631
a(lp4642
(lp4643
F888.0
aF446.0
aa(lp4644
F0.0
aF0.0
aa(lp4645
F0.0
aF0.0
aa(lp4646
F0.0
aF0.0
aaaa(lp4647
(lp4648
(lp4649
F397.0
aF448.0
aa(lp4650
F0.0
aF0.0
aa(lp4651
F0.0
aF0.0
aa(lp4652
F0.0
aF0.0
aaag4642
aa(lp4653
g4648
a(lp4654
(lp4655
F896.0
aF459.0
aa(lp4656
F0.0
aF0.0
aa(lp4657
F0.0
aF0.0
aa(lp4658
F0.0
aF0.0
aaaa(lp4659
(lp4660
(lp4661
F407.0
aF464.0
aa(lp4662
F0.0
aF0.0
aa(lp4663
F0.0
aF0.0
aa(lp4664
F0.0
aF0.0
aaag4654
aa(lp4665
g4660
a(lp4666
(lp4667
F899.0
aF468.0
aa(lp4668
F0.0
aF0.0
aa(lp4669
F0.0
aF0.0
aa(lp4670
F0.0
aF0.0
aaaa(lp4671
(lp4672
(lp4673
F408.0
aF472.0
aa(lp4674
F0.0
aF0.0
aa(lp4675
F0.0
aF0.0
aa(lp4676
F0.0
aF0.0
aaag4666
aa(lp4677
(lp4678
(lp4679
F409.0
aF478.0
aa(lp4680
F0.0
aF0.0
aa(lp4681
F0.0
aF0.0
aa(lp4682
F0.0
aF0.0
aaa(lp4683
(lp4684
F900.0
aF473.0
aa(lp4685
F0.0
aF0.0
aa(lp4686
F0.0
aF0.0
aa(lp4687
F0.0
aF0.0
aaaa(lp4688
g4678
a(lp4689
(lp4690
F899.0
aF483.0
aa(lp4691
F0.0
aF0.0
aa(lp4692
F0.0
aF0.0
aa(lp4693
F0.0
aF0.0
aaaa(lp4694
(lp4695
(lp4696
F409.0
aF487.0
aa(lp4697
F0.0
aF0.0
aa(lp4698
F0.0
aF0.0
aa(lp4699
F0.0
aF0.0
aaag4689
aa(lp4700
g4695
a(lp4701
(lp4702
F896.0
aF493.0
aa(lp4703
F0.0
aF0.0
aa(lp4704
F0.0
aF0.0
aa(lp4705
F0.0
aF0.0
aaaa(lp4706
(lp4707
(lp4708
F408.0
aF496.0
aa(lp4709
F0.0
aF0.0
aa(lp4710
F0.0
aF0.0
aa(lp4711
F0.0
aF0.0
aaag4701
aa(lp4712
(lp4713
(lp4714
F407.0
aF500.0
aa(lp4715
F0.0
aF0.0
aa(lp4716
F0.0
aF0.0
aa(lp4717
F0.0
aF0.0
aaa(lp4718
(lp4719
F895.0
aF500.0
aa(lp4720
F0.0
aF0.0
aa(lp4721
F0.0
aF0.0
aa(lp4722
F0.0
aF0.0
aaaa(lp4723
(lp4724
(lp4725
F405.0
aF504.0
aa(lp4726
F0.0
aF0.0
aa(lp4727
F0.0
aF0.0
aa(lp4728
F0.0
aF0.0
aaag4718
aa(lp4729
(lp4730
(lp4731
F401.0
aF505.0
aa(lp4732
F0.0
aF0.0
aa(lp4733
F0.0
aF0.0
aa(lp4734
F0.0
aF0.0
aaag4718
aa(lp4735
g4730
ag4718
aa(lp4736
(lp4737
(lp4738
F394.0
aF511.0
aa(lp4739
F0.0
aF0.0
aa(lp4740
F0.0
aF0.0
aa(lp4741
F0.0
aF0.0
aaa(lp4742
(lp4743
F888.0
aF507.0
aa(lp4744
F0.0
aF0.0
aa(lp4745
F0.0
aF0.0
aa(lp4746
F0.0
aF0.0
aaaa(lp4747
(lp4748
(lp4749
F390.0
aF512.0
aa(lp4750
F0.0
aF0.0
aa(lp4751
F0.0
aF0.0
aa(lp4752
F0.0
aF0.0
aaa(lp4753
(lp4754
F872.0
aF514.0
aa(lp4755
F0.0
aF0.0
aa(lp4756
F0.0
aF0.0
aa(lp4757
F0.0
aF0.0
aaaa(lp4758
(lp4759
(lp4760
F384.0
aF514.0
aa(lp4761
F0.0
aF0.0
aa(lp4762
F0.0
aF0.0
aa(lp4763
F0.0
aF0.0
aaag4753
aa(lp4764
(lp4765
(lp4766
F377.0
aF514.0
aa(lp4767
F0.0
aF0.0
aa(lp4768
F0.0
aF0.0
aa(lp4769
F0.0
aF0.0
aaag4753
aa(lp4770
g4765
a(lp4771
(lp4772
F860.0
aF514.0
aa(lp4773
F0.0
aF0.0
aa(lp4774
F0.0
aF0.0
aa(lp4775
F0.0
aF0.0
aaaa(lp4776
(lp4777
(lp4778
F366.0
aF513.0
aa(lp4779
F0.0
aF0.0
aa(lp4780
F0.0
aF0.0
aa(lp4781
F0.0
aF0.0
aaag4771
aa(lp4782
g4777
a(lp4783
(lp4784
F841.0
aF513.0
aa(lp4785
F0.0
aF0.0
aa(lp4786
F0.0
aF0.0
aa(lp4787
F0.0
aF0.0
aaaa(lp4788
(lp4789
(lp4790
F351.0
aF511.0
aa(lp4791
F0.0
aF0.0
aa(lp4792
F0.0
aF0.0
aa(lp4793
F0.0
aF0.0
aaa(lp4794
(lp4795
F834.0
aF512.0
aa(lp4796
F0.0
aF0.0
aa(lp4797
F0.0
aF0.0
aa(lp4798
F0.0
aF0.0
aaaa(lp4799
g4789
a(lp4800
(lp4801
F826.0
aF511.0
aa(lp4802
F0.0
aF0.0
aa(lp4803
F0.0
aF0.0
aa(lp4804
F0.0
aF0.0
aaaa(lp4805
(lp4806
(lp4807
F335.0
aF505.0
aa(lp4808
F0.0
aF0.0
aa(lp4809
F0.0
aF0.0
aa(lp4810
F0.0
aF0.0
aaa(lp4811
(lp4812
F818.0
aF506.0
aa(lp4813
F0.0
aF0.0
aa(lp4814
F0.0
aF0.0
aa(lp4815
F0.0
aF0.0
aaaa(lp4816
(lp4817
(lp4818
F328.0
aF502.0
aa(lp4819
F0.0
aF0.0
aa(lp4820
F0.0
aF0.0
aa(lp4821
F0.0
aF0.0
aaa(lp4822
(lp4823
F811.0
aF504.0
aa(lp4824
F0.0
aF0.0
aa(lp4825
F0.0
aF0.0
aa(lp4826
F0.0
aF0.0
aaaa(lp4827
g4817
a(lp4828
(lp4829
F804.0
aF499.0
aa(lp4830
F0.0
aF0.0
aa(lp4831
F0.0
aF0.0
aa(lp4832
F0.0
aF0.0
aaaa(lp4833
(lp4834
(lp4835
F313.0
aF494.0
aa(lp4836
F0.0
aF0.0
aa(lp4837
F0.0
aF0.0
aa(lp4838
F0.0
aF0.0
aaag4828
aa(lp4839
g4834
a(lp4840
(lp4841
F792.0
aF491.0
aa(lp4842
F0.0
aF0.0
aa(lp4843
F0.0
aF0.0
aa(lp4844
F0.0
aF0.0
aaaa(lp4845
(lp4846
(lp4847
F302.0
aF484.0
aa(lp4848
F0.0
aF0.0
aa(lp4849
F0.0
aF0.0
aa(lp4850
F0.0
aF0.0
aaa(lp4851
(lp4852
F784.0
aF486.0
aa(lp4853
F0.0
aF0.0
aa(lp4854
F0.0
aF0.0
aa(lp4855
F0.0
aF0.0
aaaa(lp4856
(lp4857
(lp4858
F295.0
aF479.0
aa(lp4859
F0.0
aF0.0
aa(lp4860
F0.0
aF0.0
aa(lp4861
F0.0
aF0.0
aaa(lp4862
(lp4863
F780.0
aF480.0
aa(lp4864
F0.0
aF0.0
aa(lp4865
F0.0
aF0.0
aa(lp4866
F0.0
aF0.0
aaaa(lp4867
(lp4868
(lp4869
F288.0
aF473.0
aa(lp4870
F0.0
aF0.0
aa(lp4871
F0.0
aF0.0
aa(lp4872
F0.0
aF0.0
aaa(lp4873
(lp4874
F776.0
aF475.0
aa(lp4875
F0.0
aF0.0
aa(lp4876
F0.0
aF0.0
aa(lp4877
F0.0
aF0.0
aaaa(lp4878
(lp4879
(lp4880
F281.0
aF464.0
aa(lp4881
F0.0
aF0.0
aa(lp4882
F0.0
aF0.0
aa(lp4883
F0.0
aF0.0
aaag4873
aa(lp4884
g4879
a(lp4885
(lp4886
F766.0
aF463.0
aa(lp4887
F0.0
aF0.0
aa(lp4888
F0.0
aF0.0
aa(lp4889
F0.0
aF0.0
aaaa(lp4890
(lp4891
(lp4892
F272.0
aF452.0
aa(lp4893
F0.0
aF0.0
aa(lp4894
F0.0
aF0.0
aa(lp4895
F0.0
aF0.0
aaag4885
aa(lp4896
g4891
a(lp4897
(lp4898
F759.0
aF450.0
aa(lp4899
F0.0
aF0.0
aa(lp4900
F0.0
aF0.0
aa(lp4901
F0.0
aF0.0
aaaa(lp4902
(lp4903
(lp4904
F264.0
aF439.0
aa(lp4905
F0.0
aF0.0
aa(lp4906
F0.0
aF0.0
aa(lp4907
F0.0
aF0.0
aaa(lp4908
(lp4909
F752.0
aF444.0
aa(lp4910
F0.0
aF0.0
aa(lp4911
F0.0
aF0.0
aa(lp4912
F0.0
aF0.0
aaaa(lp4913
g4903
a(lp4914
(lp4915
F751.0
aF437.0
aa(lp4916
F0.0
aF0.0
aa(lp4917
F0.0
aF0.0
aa(lp4918
F0.0
aF0.0
aaaa(lp4919
g4903
a(lp4920
(lp4921
F748.0
aF432.0
aa(lp4922
F0.0
aF0.0
aa(lp4923
F0.0
aF0.0
aa(lp4924
F0.0
aF0.0
aaaa(lp4925
(lp4926
(lp4927
F256.0
aF420.0
aa(lp4928
F0.0
aF0.0
aa(lp4929
F0.0
aF0.0
aa(lp4930
F0.0
aF0.0
aaag4920
aa(lp4931
g4926
a(lp4932
(lp4933
F744.0
aF419.0
aa(lp4934
F0.0
aF0.0
aa(lp4935
F0.0
aF0.0
aa(lp4936
F0.0
aF0.0
aaaa(lp4937
(lp4938
(lp4939
F254.0
aF408.0
aa(lp4940
F0.0
aF0.0
aa(lp4941
F0.0
aF0.0
aa(lp4942
F0.0
aF0.0
aaag4932
aa(lp4943
g4938
a(lp4944
(lp4945
F745.0
aF407.0
aa(lp4946
F0.0
aF0.0
aa(lp4947
F0.0
aF0.0
aa(lp4948
F0.0
aF0.0
aaaa(lp4949
(lp4950
(lp4951
F256.0
aF397.0
aa(lp4952
F0.0
aF0.0
aa(lp4953
F0.0
aF0.0
aa(lp4954
F0.0
aF0.0
aaa(lp4955
(lp4956
F747.0
aF400.0
aa(lp4957
F0.0
aF0.0
aa(lp4958
F0.0
aF0.0
aa(lp4959
F0.0
aF0.0
aaaa(lp4960
g4950
a(lp4961
(lp4962
F752.0
aF396.0
aa(lp4963
F0.0
aF0.0
aa(lp4964
F0.0
aF0.0
aa(lp4965
F0.0
aF0.0
aaaa(lp4966
g4950
a(lp4967
(lp4968
F754.0
aF391.0
aa(lp4969
F0.0
aF0.0
aa(lp4970
F0.0
aF0.0
aa(lp4971
F0.0
aF0.0
aaaa(lp4972
(lp4973
(lp4974
F266.0
aF383.0
aa(lp4975
F0.0
aF0.0
aa(lp4976
F0.0
aF0.0
aa(lp4977
F0.0
aF0.0
aaag4967
aa(lp4978
g4973
a(lp4979
(lp4980
F765.0
aF383.0
aa(lp4981
F0.0
aF0.0
aa(lp4982
F0.0
aF0.0
aa(lp4983
F0.0
aF0.0
aaaa(lp4984
(lp4985
(lp4986
F279.0
aF377.0
aa(lp4987
F0.0
aF0.0
aa(lp4988
F0.0
aF0.0
aa(lp4989
F0.0
aF0.0
aaag4979
aa(lp4990
g4985
a(lp4991
(lp4992
F779.0
aF376.0
aa(lp4993
F0.0
aF0.0
aa(lp4994
F0.0
aF0.0
aa(lp4995
F0.0
aF0.0
aaaa(lp4996
(lp4997
(lp4998
F295.0
aF373.0
aa(lp4999
F0.0
aF0.0
aa(lp5000
F0.0
aF0.0
aa(lp5001
F0.0
aF0.0
aaa(lp5002
(lp5003
F786.0
aF374.0
aa(lp5004
F0.0
aF0.0
aa(lp5005
F0.0
aF0.0
aa(lp5006
F0.0
aF0.0
aaaa(lp5007
g4997
a(lp5008
(lp5009
F796.0
aF371.0
aa(lp5010
F0.0
aF0.0
aa(lp5011
F0.0
aF0.0
aa(lp5012
F0.0
aF0.0
aaaa(lp5013
g4997
a(lp5014
(lp5015
F807.0
aF370.0
aa(lp5016
F0.0
aF0.0
aa(lp5017
F0.0
aF0.0
aa(lp5018
F0.0
aF0.0
aaaa(lp5019
(lp5020
(lp5021
F321.0
aF371.0
aa(lp5022
F0.0
aF0.0
aa(lp5023
F0.0
aF0.0
aa(lp5024
F0.0
aF0.0
aaag5014
aa(lp5025
g5020
a(lp5026
(lp5027
F832.0
aF371.0
aa(lp5028
F0.0
aF0.0
aa(lp5029
F0.0
aF0.0
aa(lp5030
F0.0
aF0.0
aaaa(lp5031
(lp5032
(lp5033
F334.0
aF373.0
aa(lp5034
F0.0
aF0.0
aa(lp5035
F0.0
aF0.0
aa(lp5036
F0.0
aF0.0
aaag5026
aa(lp5037
(lp5038
(lp5039
F349.0
aF375.0
aa(lp5040
F0.0
aF0.0
aa(lp5041
F0.0
aF0.0
aa(lp5042
F0.0
aF0.0
aaa(lp5043
(lp5044
F855.0
aF373.0
aa(lp5045
F0.0
aF0.0
aa(lp5046
F0.0
aF0.0
aa(lp5047
F0.0
aF0.0
aaaa(lp5048
g5038
a(lp5049
(lp5050
F864.0
aF375.0
aa(lp5051
F0.0
aF0.0
aa(lp5052
F0.0
aF0.0
aa(lp5053
F0.0
aF0.0
aaaa(lp5054
(lp5055
(lp5056
F368.0
aF380.0
aa(lp5057
F0.0
aF0.0
aa(lp5058
F0.0
aF0.0
aa(lp5059
F0.0
aF0.0
aaag5049
aa(lp5060
(lp5061
(lp5062
F378.0
aF383.0
aa(lp5063
F0.0
aF0.0
aa(lp5064
F0.0
aF0.0
aa(lp5065
F0.0
aF0.0
aaa(lp5066
(lp5067
F884.0
aF382.0
aa(lp5068
F0.0
aF0.0
aa(lp5069
F0.0
aF0.0
aa(lp5070
F0.0
aF0.0
aaaa(lp5071
(lp5072
(lp5073
F388.0
aF386.0
aa(lp5074
F0.0
aF0.0
aa(lp5075
F0.0
aF0.0
aa(lp5076
F0.0
aF0.0
aaag5066
aa(lp5077
(lp5078
(lp5079
F397.0
aF392.0
aa(lp5080
F0.0
aF0.0
aa(lp5081
F0.0
aF0.0
aa(lp5082
F0.0
aF0.0
aaa(lp5083
(lp5084
F902.0
aF391.0
aa(lp5085
F0.0
aF0.0
aa(lp5086
F0.0
aF0.0
aa(lp5087
F0.0
aF0.0
aaaa(lp5088
(lp5089
(lp5090
F405.0
aF397.0
aa(lp5091
F0.0
aF0.0
aa(lp5092
F0.0
aF0.0
aa(lp5093
F0.0
aF0.0
aaag5083
aa(lp5094
(lp5095
(lp5096
F412.0
aF401.0
aa(lp5097
F0.0
aF0.0
aa(lp5098
F0.0
aF0.0
aa(lp5099
F0.0
aF0.0
aaa(lp5100
(lp5101
F915.0
aF400.0
aa(lp5102
F0.0
aF0.0
aa(lp5103
F0.0
aF0.0
aa(lp5104
F0.0
aF0.0
aaaa(lp5105
g5095
a(lp5106
(lp5107
F920.0
aF405.0
aa(lp5108
F0.0
aF0.0
aa(lp5109
F0.0
aF0.0
aa(lp5110
F0.0
aF0.0
aaaa(lp5111
(lp5112
(lp5113
F424.0
aF412.0
aa(lp5114
F0.0
aF0.0
aa(lp5115
F0.0
aF0.0
aa(lp5116
F0.0
aF0.0
aaag5106
aa(lp5117
g5112
a(lp5118
(lp5119
F927.0
aF416.0
aa(lp5120
F0.0
aF0.0
aa(lp5121
F0.0
aF0.0
aa(lp5122
F0.0
aF0.0
aaaa(lp5123
(lp5124
(lp5125
F429.0
aF423.0
aa(lp5126
F0.0
aF0.0
aa(lp5127
F0.0
aF0.0
aa(lp5128
F0.0
aF0.0
aaag5118
aa(lp5129
(lp5130
(lp5131
F430.0
aF425.0
aa(lp5132
F0.0
aF0.0
aa(lp5133
F0.0
aF0.0
aa(lp5134
F0.0
aF0.0
aaa(lp5135
(lp5136
F927.0
aF425.0
aa(lp5137
F0.0
aF0.0
aa(lp5138
F0.0
aF0.0
aa(lp5139
F0.0
aF0.0
aaaa(lp5140
(lp5141
(lp5142
F427.0
aF431.0
aa(lp5143
F0.0
aF0.0
aa(lp5144
F0.0
aF0.0
aa(lp5145
F0.0
aF0.0
aaag5135
aa(lp5146
(lp5147
(lp5148
F424.0
aF432.0
aa(lp5149
F0.0
aF0.0
aa(lp5150
F0.0
aF0.0
aa(lp5151
F0.0
aF0.0
aaa(lp5152
(lp5153
F920.0
aF430.0
aa(lp5154
F0.0
aF0.0
aa(lp5155
F0.0
aF0.0
aa(lp5156
F0.0
aF0.0
aaaa(lp5157
g5147
a(lp5158
(lp5159
F916.0
aF432.0
aa(lp5160
F0.0
aF0.0
aa(lp5161
F0.0
aF0.0
aa(lp5162
F0.0
aF0.0
aaaa(lp5163
(lp5164
(lp5165
F416.0
aF437.0
aa(lp5166
F0.0
aF0.0
aa(lp5167
F0.0
aF0.0
aa(lp5168
F0.0
aF0.0
aaag5158
aa(lp5169
g5164
a(lp5170
(lp5171
F904.0
aF436.0
aa(lp5172
F0.0
aF0.0
aa(lp5173
F0.0
aF0.0
aa(lp5174
F0.0
aF0.0
aaaa(lp5175
(lp5176
(lp5177
F406.0
aF439.0
aa(lp5178
F0.0
aF0.0
aa(lp5179
F0.0
aF0.0
aa(lp5180
F0.0
aF0.0
aaag5170
aa(lp5181
(lp5182
(lp5183
F399.0
aF438.0
aa(lp5184
F0.0
aF0.0
aa(lp5185
F0.0
aF0.0
aa(lp5186
F0.0
aF0.0
aaa(lp5187
(lp5188
F889.0
aF436.0
aa(lp5189
F0.0
aF0.0
aa(lp5190
F0.0
aF0.0
aa(lp5191
F0.0
aF0.0
aaaa(lp5192
(lp5193
(lp5194
F392.0
aF438.0
aa(lp5195
F0.0
aF0.0
aa(lp5196
F0.0
aF0.0
aa(lp5197
F0.0
aF0.0
aaag5187
aa(lp5198
(lp5199
(lp5200
F384.0
aF436.0
aa(lp5201
F0.0
aF0.0
aa(lp5202
F0.0
aF0.0
aa(lp5203
F0.0
aF0.0
aaa(lp5204
(lp5205
F873.0
aF433.0
aa(lp5206
F0.0
aF0.0
aa(lp5207
F0.0
aF0.0
aa(lp5208
F0.0
aF0.0
aaaa(lp5209
(lp5210
(lp5211
F375.0
aF433.0
aa(lp5212
F0.0
aF0.0
aa(lp5213
F0.0
aF0.0
aa(lp5214
F0.0
aF0.0
aaag5204
aa(lp5215
(lp5216
(lp5217
F366.0
aF431.0
aa(lp5218
F0.0
aF0.0
aa(lp5219
F0.0
aF0.0
aa(lp5220
F0.0
aF0.0
aaag5204
aa(lp5221
g5216
a(lp5222
(lp5223
F846.0
aF424.0
aa(lp5224
F0.0
aF0.0
aa(lp5225
F0.0
aF0.0
aa(lp5226
F0.0
aF0.0
aaaa(lp5227
(lp5228
(lp5229
F343.0
aF421.0
aa(lp5230
F0.0
aF0.0
aa(lp5231
F0.0
aF0.0
aa(lp5232
F0.0
aF0.0
aaag5222
aa(lp5233
g5228
a(lp5234
(lp5235
F823.0
aF413.0
aa(lp5236
F0.0
aF0.0
aa(lp5237
F0.0
aF0.0
aa(lp5238
F0.0
aF0.0
aaaa(lp5239
(lp5240
(lp5241
F323.0
aF412.0
aa(lp5242
F0.0
aF0.0
aa(lp5243
F0.0
aF0.0
aa(lp5244
F0.0
aF0.0
aaag5234
aa(lp5245
(lp5246
(lp5247
F314.0
aF407.0
aa(lp5248
F0.0
aF0.0
aa(lp5249
F0.0
aF0.0
aa(lp5250
F0.0
aF0.0
aaa(lp5251
(lp5252
F805.0
aF403.0
aa(lp5253
F0.0
aF0.0
aa(lp5254
F0.0
aF0.0
aa(lp5255
F0.0
aF0.0
aaaa(lp5256
g5246
ag5251
aa(lp5257
(lp5258
(lp5259
F296.0
aF394.0
aa(lp5260
F0.0
aF0.0
aa(lp5261
F0.0
aF0.0
aa(lp5262
F0.0
aF0.0
aaag5251
aa(lp5263
g5258
a(lp5264
(lp5265
F782.0
aF385.0
aa(lp5266
F0.0
aF0.0
aa(lp5267
F0.0
aF0.0
aa(lp5268
F0.0
aF0.0
aaaa(lp5269
(lp5270
(lp5271
F281.0
aF382.0
aa(lp5272
F0.0
aF0.0
aa(lp5273
F0.0
aF0.0
aa(lp5274
F0.0
aF0.0
aaag5264
aa(lp5275
g5270
a(lp5276
(lp5277
F768.0
aF372.0
aa(lp5278
F0.0
aF0.0
aa(lp5279
F0.0
aF0.0
aa(lp5280
F0.0
aF0.0
aaaa(lp5281
(lp5282
(lp5283
F270.0
aF369.0
aa(lp5284
F0.0
aF0.0
aa(lp5285
F0.0
aF0.0
aa(lp5286
F0.0
aF0.0
aaag5276
aa(lp5287
g5282
a(lp5288
(lp5289
F760.0
aF358.0
aa(lp5290
F0.0
aF0.0
aa(lp5291
F0.0
aF0.0
aa(lp5292
F0.0
aF0.0
aaaa(lp5293
(lp5294
(lp5295
F260.0
aF356.0
aa(lp5296
F0.0
aF0.0
aa(lp5297
F0.0
aF0.0
aa(lp5298
F0.0
aF0.0
aaag5288
aa(lp5299
(lp5300
(lp5301
F256.0
aF349.0
aa(lp5302
F0.0
aF0.0
aa(lp5303
F0.0
aF0.0
aa(lp5304
F0.0
aF0.0
aaa(lp5305
(lp5306
F756.0
aF352.0
aa(lp5307
F0.0
aF0.0
aa(lp5308
F0.0
aF0.0
aa(lp5309
F0.0
aF0.0
aaaa(lp5310
g5300
a(lp5311
(lp5312
F752.0
aF339.0
aa(lp5313
F0.0
aF0.0
aa(lp5314
F0.0
aF0.0
aa(lp5315
F0.0
aF0.0
aaaa(lp5316
(lp5317
(lp5318
F249.0
aF335.0
aa(lp5319
F0.0
aF0.0
aa(lp5320
F0.0
aF0.0
aa(lp5321
F0.0
aF0.0
aaag5311
aa(lp5322
g5317
a(lp5323
(lp5324
F750.0
aF326.0
aa(lp5325
F0.0
aF0.0
aa(lp5326
F0.0
aF0.0
aa(lp5327
F0.0
aF0.0
aaaa(lp5328
(lp5329
(lp5330
F247.0
aF322.0
aa(lp5331
F0.0
aF0.0
aa(lp5332
F0.0
aF0.0
aa(lp5333
F0.0
aF0.0
aaag5323
aa(lp5334
(lp5335
(lp5336
F247.0
aF315.0
aa(lp5337
F0.0
aF0.0
aa(lp5338
F0.0
aF0.0
aa(lp5339
F0.0
aF0.0
aaa(lp5340
(lp5341
F749.0
aF312.0
aa(lp5342
F0.0
aF0.0
aa(lp5343
F0.0
aF0.0
aa(lp5344
F0.0
aF0.0
aaaa(lp5345
(lp5346
(lp5347
F247.0
aF309.0
aa(lp5348
F0.0
aF0.0
aa(lp5349
F0.0
aF0.0
aa(lp5350
F0.0
aF0.0
aaag5340
aa(lp5351
(lp5352
(lp5353
F246.0
aF303.0
aa(lp5354
F0.0
aF0.0
aa(lp5355
F0.0
aF0.0
aa(lp5356
F0.0
aF0.0
aaag5340
aa(lp5357
g5352
a(lp5358
(lp5359
F752.0
aF293.0
aa(lp5360
F0.0
aF0.0
aa(lp5361
F0.0
aF0.0
aa(lp5362
F0.0
aF0.0
aaaa(lp5363
(lp5364
(lp5365
F248.0
aF291.0
aa(lp5366
F0.0
aF0.0
aa(lp5367
F0.0
aF0.0
aa(lp5368
F0.0
aF0.0
aaag5358
aa(lp5369
g5364
a(lp5370
(lp5371
F755.0
aF288.0
aa(lp5372
F0.0
aF0.0
aa(lp5373
F0.0
aF0.0
aa(lp5374
F0.0
aF0.0
aaaa(lp5375
(lp5376
(lp5377
F253.0
aF280.0
aa(lp5378
F0.0
aF0.0
aa(lp5379
F0.0
aF0.0
aa(lp5380
F0.0
aF0.0
aaa(lp5381
(lp5382
F759.0
aF283.0
aa(lp5383
F0.0
aF0.0
aa(lp5384
F0.0
aF0.0
aa(lp5385
F0.0
aF0.0
aaaa(lp5386
(lp5387
(lp5388
F256.0
aF277.0
aa(lp5389
F0.0
aF0.0
aa(lp5390
F0.0
aF0.0
aa(lp5391
F0.0
aF0.0
aaa(lp5392
(lp5393
F761.0
aF278.0
aa(lp5394
F0.0
aF0.0
aa(lp5395
F0.0
aF0.0
aa(lp5396
F0.0
aF0.0
aaaa(lp5397
(lp5398
(lp5399
F260.0
aF273.0
aa(lp5400
F0.0
aF0.0
aa(lp5401
F0.0
aF0.0
aa(lp5402
F0.0
aF0.0
aaag5392
aa(lp5403
(lp5404
(lp5405
F264.0
aF271.0
aa(lp5406
F0.0
aF0.0
aa(lp5407
F0.0
aF0.0
aa(lp5408
F0.0
aF0.0
aaag5392
aa(lp5409
g5404
a(lp5410
(lp5411
F776.0
aF268.0
aa(lp5412
F0.0
aF0.0
aa(lp5413
F0.0
aF0.0
aa(lp5414
F0.0
aF0.0
aaaa(lp5415
(lp5416
(lp5417
F278.0
aF267.0
aa(lp5418
F0.0
aF0.0
aa(lp5419
F0.0
aF0.0
aa(lp5420
F0.0
aF0.0
aaag5410
aa(lp5421
g5416
a(lp5422
(lp5423
F796.0
aF264.0
aa(lp5424
F0.0
aF0.0
aa(lp5425
F0.0
aF0.0
aa(lp5426
F0.0
aF0.0
aaaa(lp5427
(lp5428
(lp5429
F286.0
aF267.0
aa(lp5430
F0.0
aF0.0
aa(lp5431
F0.0
aF0.0
aa(lp5432
F0.0
aF0.0
aaa(lp5433
(lp5434
F804.0
aF264.0
aa(lp5435
F0.0
aF0.0
aa(lp5436
F0.0
aF0.0
aa(lp5437
F0.0
aF0.0
aaaa(lp5438
(lp5439
(lp5440
F302.0
aF268.0
aa(lp5441
F0.0
aF0.0
aa(lp5442
F0.0
aF0.0
aa(lp5443
F0.0
aF0.0
aaa(lp5444
(lp5445
F812.0
aF264.0
aa(lp5446
F0.0
aF0.0
aa(lp5447
F0.0
aF0.0
aa(lp5448
F0.0
aF0.0
aaaa(lp5449
g5439
a(lp5450
(lp5451
F819.0
aF266.0
aa(lp5452
F0.0
aF0.0
aa(lp5453
F0.0
aF0.0
aa(lp5454
F0.0
aF0.0
aaaa(lp5455
(lp5456
(lp5457
F314.0
aF271.0
aa(lp5458
F0.0
aF0.0
aa(lp5459
F0.0
aF0.0
aa(lp5460
F0.0
aF0.0
aaag5450
aa(lp5461
g5456
a(lp5462
(lp5463
F832.0
aF269.0
aa(lp5464
F0.0
aF0.0
aa(lp5465
F0.0
aF0.0
aa(lp5466
F0.0
aF0.0
aaaa(lp5467
(lp5468
(lp5469
F326.0
aF275.0
aa(lp5470
F0.0
aF0.0
aa(lp5471
F0.0
aF0.0
aa(lp5472
F0.0
aF0.0
aaag5462
aa(lp5473
g5468
a(lp5474
(lp5475
F840.0
aF275.0
aa(lp5476
F0.0
aF0.0
aa(lp5477
F0.0
aF0.0
aa(lp5478
F0.0
aF0.0
aaaa(lp5479
(lp5480
(lp5481
F332.0
aF280.0
aa(lp5482
F0.0
aF0.0
aa(lp5483
F0.0
aF0.0
aa(lp5484
F0.0
aF0.0
aaa(lp5485
(lp5486
F842.0
aF278.0
aa(lp5487
F0.0
aF0.0
aa(lp5488
F0.0
aF0.0
aa(lp5489
F0.0
aF0.0
aaaa(lp5490
(lp5491
(lp5492
F336.0
aF286.0
aa(lp5493
F0.0
aF0.0
aa(lp5494
F0.0
aF0.0
aa(lp5495
F0.0
aF0.0
aaa(lp5496
(lp5497
F846.0
aF281.0
aa(lp5498
F0.0
aF0.0
aa(lp5499
F0.0
aF0.0
aa(lp5500
F0.0
aF0.0
aaaa(lp5501
g5491
a(lp5502
(lp5503
F848.0
aF284.0
aa(lp5504
F0.0
aF0.0
aa(lp5505
F0.0
aF0.0
aa(lp5506
F0.0
aF0.0
aaaa(lp5507
(lp5508
(lp5509
F343.0
aF294.0
aa(lp5510
F0.0
aF0.0
aa(lp5511
F0.0
aF0.0
aa(lp5512
F0.0
aF0.0
aaag5502
aa(lp5513
g5508
a(lp5514
(lp5515
F854.0
aF293.0
aa(lp5516
F0.0
aF0.0
aa(lp5517
F0.0
aF0.0
aa(lp5518
F0.0
aF0.0
aaaa(lp5519
(lp5520
(lp5521
F347.0
aF304.0
aa(lp5522
F0.0
aF0.0
aa(lp5523
F0.0
aF0.0
aa(lp5524
F0.0
aF0.0
aaa(lp5525
(lp5526
F856.0
aF299.0
aa(lp5527
F0.0
aF0.0
aa(lp5528
F0.0
aF0.0
aa(lp5529
F0.0
aF0.0
aaaa(lp5530
g5520
a(lp5531
(lp5532
F856.0
aF302.0
aa(lp5533
F0.0
aF0.0
aa(lp5534
F0.0
aF0.0
aa(lp5535
F0.0
aF0.0
aaaa(lp5536
(lp5537
(lp5538
F351.0
aF314.0
aa(lp5539
F0.0
aF0.0
aa(lp5540
F0.0
aF0.0
aa(lp5541
F0.0
aF0.0
aaa(lp5542
(lp5543
F856.0
aF308.0
aa(lp5544
F0.0
aF0.0
aa(lp5545
F0.0
aF0.0
aa(lp5546
F0.0
aF0.0
aaaa(lp5547
(lp5548
(lp5549
F351.0
aF319.0
aa(lp5550
F0.0
aF0.0
aa(lp5551
F0.0
aF0.0
aa(lp5552
F0.0
aF0.0
aaag5542
aa(lp5553
g5548
a(lp5554
(lp5555
F857.0
aF318.0
aa(lp5556
F0.0
aF0.0
aa(lp5557
F0.0
aF0.0
aa(lp5558
F0.0
aF0.0
aaaa(lp5559
(lp5560
(lp5561
F350.0
aF328.0
aa(lp5562
F0.0
aF0.0
aa(lp5563
F0.0
aF0.0
aa(lp5564
F0.0
aF0.0
aaag5554
aa(lp5565
g5560
a(lp5566
(lp5567
F854.0
aF328.0
aa(lp5568
F0.0
aF0.0
aa(lp5569
F0.0
aF0.0
aa(lp5570
F0.0
aF0.0
aaaa(lp5571
(lp5572
(lp5573
F343.0
aF335.0
aa(lp5574
F0.0
aF0.0
aa(lp5575
F0.0
aF0.0
aa(lp5576
F0.0
aF0.0
aaa(lp5577
(lp5578
F848.0
aF331.0
aa(lp5579
F0.0
aF0.0
aa(lp5580
F0.0
aF0.0
aa(lp5581
F0.0
aF0.0
aaaa(lp5582
g5572
a(lp5583
(lp5584
F844.0
aF335.0
aa(lp5585
F0.0
aF0.0
aa(lp5586
F0.0
aF0.0
aa(lp5587
F0.0
aF0.0
aaaa(lp5588
(lp5589
(lp5590
F329.0
aF339.0
aa(lp5591
F0.0
aF0.0
aa(lp5592
F0.0
aF0.0
aa(lp5593
F0.0
aF0.0
aaa(lp5594
(lp5595
F838.0
aF336.0
aa(lp5596
F0.0
aF0.0
aa(lp5597
F0.0
aF0.0
aa(lp5598
F0.0
aF0.0
aaaa(lp5599
(lp5600
(lp5601
F321.0
aF340.0
aa(lp5602
F0.0
aF0.0
aa(lp5603
F0.0
aF0.0
aa(lp5604
F0.0
aF0.0
aaag5594
aa(lp5605
g5600
a(lp5606
(lp5607
F821.0
aF337.0
aa(lp5608
F0.0
aF0.0
aa(lp5609
F0.0
aF0.0
aa(lp5610
F0.0
aF0.0
aaaa(lp5611
(lp5612
(lp5613
F303.0
aF338.0
aa(lp5614
F0.0
aF0.0
aa(lp5615
F0.0
aF0.0
aa(lp5616
F0.0
aF0.0
aaag5606
aa(lp5617
g5612
a(lp5618
(lp5619
F795.0
aF335.0
aa(lp5620
F0.0
aF0.0
aa(lp5621
F0.0
aF0.0
aa(lp5622
F0.0
aF0.0
aaaa(lp5623
(lp5624
(lp5625
F281.0
aF333.0
aa(lp5626
F0.0
aF0.0
aa(lp5627
F0.0
aF0.0
aa(lp5628
F0.0
aF0.0
aaa(lp5629
(lp5630
F784.0
aF332.0
aa(lp5631
F0.0
aF0.0
aa(lp5632
F0.0
aF0.0
aa(lp5633
F0.0
aF0.0
aaaa(lp5634
(lp5635
(lp5636
F271.0
aF330.0
aa(lp5637
F0.0
aF0.0
aa(lp5638
F0.0
aF0.0
aa(lp5639
F0.0
aF0.0
aaa(lp5640
(lp5641
F773.0
aF329.0
aa(lp5642
F0.0
aF0.0
aa(lp5643
F0.0
aF0.0
aa(lp5644
F0.0
aF0.0
aaaa(lp5645
g5635
a(lp5646
(lp5647
F762.0
aF326.0
aa(lp5648
F0.0
aF0.0
aa(lp5649
F0.0
aF0.0
aa(lp5650
F0.0
aF0.0
aaaa(lp5651
(lp5652
(lp5653
F250.0
aF321.0
aa(lp5654
F0.0
aF0.0
aa(lp5655
F0.0
aF0.0
aa(lp5656
F0.0
aF0.0
aaag5646
aa(lp5657
g5652
ag5646
aa(lp5658
(lp5659
(lp5660
F233.0
aF312.0
aa(lp5661
F0.0
aF0.0
aa(lp5662
F0.0
aF0.0
aa(lp5663
F0.0
aF0.0
aaa(lp5664
(lp5665
F744.0
aF317.0
aa(lp5666
F0.0
aF0.0
aa(lp5667
F0.0
aF0.0
aa(lp5668
F0.0
aF0.0
aaaa(lp5669
(lp5670
(lp5671
F228.0
aF307.0
aa(lp5672
F0.0
aF0.0
aa(lp5673
F0.0
aF0.0
aa(lp5674
F0.0
aF0.0
aaa(lp5675
(lp5676
F730.0
aF308.0
aa(lp5677
F0.0
aF0.0
aa(lp5678
F0.0
aF0.0
aa(lp5679
F0.0
aF0.0
aaaa(lp5680
g5670
a(lp5681
(lp5682
F727.0
aF302.0
aa(lp5683
F0.0
aF0.0
aa(lp5684
F0.0
aF0.0
aa(lp5685
F0.0
aF0.0
aaaa(lp5686
(lp5687
(lp5688
F220.0
aF296.0
aa(lp5689
F0.0
aF0.0
aa(lp5690
F0.0
aF0.0
aa(lp5691
F0.0
aF0.0
aaag5681
aa(lp5692
g5687
a(lp5693
(lp5694
F721.0
aF292.0
aa(lp5695
F0.0
aF0.0
aa(lp5696
F0.0
aF0.0
aa(lp5697
F0.0
aF0.0
aaaa(lp5698
(lp5699
(lp5700
F216.0
aF283.0
aa(lp5701
F0.0
aF0.0
aa(lp5702
F0.0
aF0.0
aa(lp5703
F0.0
aF0.0
aaag5693
aa(lp5704
g5699
a(lp5705
(lp5706
F721.0
aF281.0
aa(lp5707
F0.0
aF0.0
aa(lp5708
F0.0
aF0.0
aa(lp5709
F0.0
aF0.0
aaaa(lp5710
(lp5711
(lp5712
F216.0
aF273.0
aa(lp5713
F0.0
aF0.0
aa(lp5714
F0.0
aF0.0
aa(lp5715
F0.0
aF0.0
aaa(lp5716
(lp5717
F722.0
aF276.0
aa(lp5718
F0.0
aF0.0
aa(lp5719
F0.0
aF0.0
aa(lp5720
F0.0
aF0.0
aaaa(lp5721
(lp5722
(lp5723
F217.0
aF268.0
aa(lp5724
F0.0
aF0.0
aa(lp5725
F0.0
aF0.0
aa(lp5726
F0.0
aF0.0
aaag5716
aa(lp5727
g5722
a(lp5728
(lp5729
F727.0
aF266.0
aa(lp5730
F0.0
aF0.0
aa(lp5731
F0.0
aF0.0
aa(lp5732
F0.0
aF0.0
aaaa(lp5733
(lp5734
(lp5735
F223.0
aF259.0
aa(lp5736
F0.0
aF0.0
aa(lp5737
F0.0
aF0.0
aa(lp5738
F0.0
aF0.0
aaag5728
aa(lp5739
g5734
a(lp5740
(lp5741
F734.0
aF257.0
aa(lp5742
F0.0
aF0.0
aa(lp5743
F0.0
aF0.0
aa(lp5744
F0.0
aF0.0
aaaa(lp5745
(lp5746
(lp5747
F231.0
aF251.0
aa(lp5748
F0.0
aF0.0
aa(lp5749
F0.0
aF0.0
aa(lp5750
F0.0
aF0.0
aaag5740
aa(lp5751
g5746
a(lp5752
(lp5753
F744.0
aF249.0
aa(lp5754
F0.0
aF0.0
aa(lp5755
F0.0
aF0.0
aa(lp5756
F0.0
aF0.0
aaaa(lp5757
(lp5758
(lp5759
F236.0
aF247.0
aa(lp5760
F0.0
aF0.0
aa(lp5761
F0.0
aF0.0
aa(lp5762
F0.0
aF0.0
aaa(lp5763
(lp5764
F750.0
aF245.0
aa(lp5765
F0.0
aF0.0
aa(lp5766
F0.0
aF0.0
aa(lp5767
F0.0
aF0.0
aaaa(lp5768
(lp5769
(lp5770
F247.0
aF240.0
aa(lp5771
F0.0
aF0.0
aa(lp5772
F0.0
aF0.0
aa(lp5773
F0.0
aF0.0
aaag5763
aa(lp5774
g5769
a(lp5775
(lp5776
F761.0
aF238.0
aa(lp5777
F0.0
aF0.0
aa(lp5778
F0.0
aF0.0
aa(lp5779
F0.0
aF0.0
aaaa(lp5780
(lp5781
(lp5782
F257.0
aF235.0
aa(lp5783
F0.0
aF0.0
aa(lp5784
F0.0
aF0.0
aa(lp5785
F0.0
aF0.0
aaag5775
aa(lp5786
g5781
a(lp5787
(lp5788
F773.0
aF233.0
aa(lp5789
F0.0
aF0.0
aa(lp5790
F0.0
aF0.0
aa(lp5791
F0.0
aF0.0
aaaa(lp5792
(lp5793
(lp5794
F263.0
aF233.0
aa(lp5795
F0.0
aF0.0
aa(lp5796
F0.0
aF0.0
aa(lp5797
F0.0
aF0.0
aaa(lp5798
(lp5799
F779.0
aF231.0
aa(lp5800
F0.0
aF0.0
aa(lp5801
F0.0
aF0.0
aa(lp5802
F0.0
aF0.0
aaaa(lp5803
(lp5804
(lp5805
F275.0
aF231.0
aa(lp5806
F0.0
aF0.0
aa(lp5807
F0.0
aF0.0
aa(lp5808
F0.0
aF0.0
aaag5798
aa(lp5809
g5804
a(lp5810
(lp5811
F792.0
aF228.0
aa(lp5812
F0.0
aF0.0
aa(lp5813
F0.0
aF0.0
aa(lp5814
F0.0
aF0.0
aaaa(lp5815
(lp5816
(lp5817
F281.0
aF230.0
aa(lp5818
F0.0
aF0.0
aa(lp5819
F0.0
aF0.0
aa(lp5820
F0.0
aF0.0
aaag5810
aa(lp5821
(lp5822
(lp5823
F288.0
aF230.0
aa(lp5824
F0.0
aF0.0
aa(lp5825
F0.0
aF0.0
aa(lp5826
F0.0
aF0.0
aaa(lp5827
(lp5828
F812.0
aF227.0
aa(lp5829
F0.0
aF0.0
aa(lp5830
F0.0
aF0.0
aa(lp5831
F0.0
aF0.0
aaaa(lp5832
(lp5833
(lp5834
F304.0
aF231.0
aa(lp5835
F0.0
aF0.0
aa(lp5836
F0.0
aF0.0
aa(lp5837
F0.0
aF0.0
aaag5827
aa(lp5838
g5833
a(lp5839
(lp5840
F826.0
aF229.0
aa(lp5841
F0.0
aF0.0
aa(lp5842
F0.0
aF0.0
aa(lp5843
F0.0
aF0.0
aaaa(lp5844
g5833
a(lp5845
(lp5846
F834.0
aF230.0
aa(lp5847
F0.0
aF0.0
aa(lp5848
F0.0
aF0.0
aa(lp5849
F0.0
aF0.0
aaaa(lp5850
(lp5851
(lp5852
F319.0
aF234.0
aa(lp5853
F0.0
aF0.0
aa(lp5854
F0.0
aF0.0
aa(lp5855
F0.0
aF0.0
aaag5845
aa(lp5856
g5851
a(lp5857
(lp5858
F848.0
aF236.0
aa(lp5859
F0.0
aF0.0
aa(lp5860
F0.0
aF0.0
aa(lp5861
F0.0
aF0.0
aaaa(lp5862
(lp5863
(lp5864
F342.0
aF246.0
aa(lp5865
F0.0
aF0.0
aa(lp5866
F0.0
aF0.0
aa(lp5867
F0.0
aF0.0
aaag5857
aa(lp5868
g5863
a(lp5869
(lp5870
F861.0
aF243.0
aa(lp5871
F0.0
aF0.0
aa(lp5872
F0.0
aF0.0
aa(lp5873
F0.0
aF0.0
aaaa(lp5874
(lp5875
(lp5876
F352.0
aF255.0
aa(lp5877
F0.0
aF0.0
aa(lp5878
F0.0
aF0.0
aa(lp5879
F0.0
aF0.0
aaag5869
aa(lp5880
g5875
a(lp5881
(lp5882
F871.0
aF252.0
aa(lp5883
F0.0
aF0.0
aa(lp5884
F0.0
aF0.0
aa(lp5885
F0.0
aF0.0
aaaa(lp5886
(lp5887
(lp5888
F360.0
aF264.0
aa(lp5889
F0.0
aF0.0
aa(lp5890
F0.0
aF0.0
aa(lp5891
F0.0
aF0.0
aaa(lp5892
(lp5893
F873.0
aF256.0
aa(lp5894
F0.0
aF0.0
aa(lp5895
F0.0
aF0.0
aa(lp5896
F0.0
aF0.0
aaaa(lp5897
g5887
a(lp5898
(lp5899
F876.0
aF261.0
aa(lp5900
F0.0
aF0.0
aa(lp5901
F0.0
aF0.0
aa(lp5902
F0.0
aF0.0
aaaa(lp5903
g5887
a(lp5904
(lp5905
F878.0
aF265.0
aa(lp5906
F0.0
aF0.0
aa(lp5907
F0.0
aF0.0
aa(lp5908
F0.0
aF0.0
aaaa(lp5909
(lp5910
(lp5911
F362.0
aF276.0
aa(lp5912
F0.0
aF0.0
aa(lp5913
F0.0
aF0.0
aa(lp5914
F0.0
aF0.0
aaag5904
aa(lp5915
g5910
a(lp5916
(lp5917
F874.0
aF272.0
aa(lp5918
F0.0
aF0.0
aa(lp5919
F0.0
aF0.0
aa(lp5920
F0.0
aF0.0
aaaa(lp5921
(lp5922
(lp5923
F358.0
aF280.0
aa(lp5924
F0.0
aF0.0
aa(lp5925
F0.0
aF0.0
aa(lp5926
F0.0
aF0.0
aaag5916
aa(lp5927
g5922
a(lp5928
(lp5929
F866.0
aF278.0
aa(lp5930
F0.0
aF0.0
aa(lp5931
F0.0
aF0.0
aa(lp5932
F0.0
aF0.0
aaaa(lp5933
(lp5934
(lp5935
F352.0
aF282.0
aa(lp5936
F0.0
aF0.0
aa(lp5937
F0.0
aF0.0
aa(lp5938
F0.0
aF0.0
aaa(lp5939
(lp5940
F862.0
aF278.0
aa(lp5941
F0.0
aF0.0
aa(lp5942
F0.0
aF0.0
aa(lp5943
F0.0
aF0.0
aaaa(lp5944
(lp5945
(lp5946
F347.0
aF283.0
aa(lp5947
F0.0
aF0.0
aa(lp5948
F0.0
aF0.0
aa(lp5949
F0.0
aF0.0
aaag5939
aa(lp5950
g5945
a(lp5951
(lp5952
F848.0
aF278.0
aa(lp5953
F0.0
aF0.0
aa(lp5954
F0.0
aF0.0
aa(lp5955
F0.0
aF0.0
aaaa(lp5956
(lp5957
(lp5958
F335.0
aF282.0
aa(lp5959
F0.0
aF0.0
aa(lp5960
F0.0
aF0.0
aa(lp5961
F0.0
aF0.0
aaag5951
aa(lp5962
(lp5963
(lp5964
F327.0
aF281.0
aa(lp5965
F0.0
aF0.0
aa(lp5966
F0.0
aF0.0
aa(lp5967
F0.0
aF0.0
aaa(lp5968
(lp5969
F833.0
aF277.0
aa(lp5970
F0.0
aF0.0
aa(lp5971
F0.0
aF0.0
aa(lp5972
F0.0
aF0.0
aaaa(lp5973
(lp5974
(lp5975
F319.0
aF280.0
aa(lp5976
F0.0
aF0.0
aa(lp5977
F0.0
aF0.0
aa(lp5978
F0.0
aF0.0
aaag5968
aa(lp5979
(lp5980
(lp5981
F311.0
aF279.0
aa(lp5982
F0.0
aF0.0
aa(lp5983
F0.0
aF0.0
aa(lp5984
F0.0
aF0.0
aaa(lp5985
(lp5986
F816.0
aF275.0
aa(lp5987
F0.0
aF0.0
aa(lp5988
F0.0
aF0.0
aa(lp5989
F0.0
aF0.0
aaaa(lp5990
(lp5991
(lp5992
F302.0
aF275.0
aa(lp5993
F0.0
aF0.0
aa(lp5994
F0.0
aF0.0
aa(lp5995
F0.0
aF0.0
aaag5985
aa(lp5996
(lp5997
(lp5998
F292.0
aF272.0
aa(lp5999
F0.0
aF0.0
aa(lp6000
F0.0
aF0.0
aa(lp6001
F0.0
aF0.0
aaag5985
aa(lp6002
g5997
a(lp6003
(lp6004
F782.0
aF263.0
aa(lp6005
F0.0
aF0.0
aa(lp6006
F0.0
aF0.0
aa(lp6007
F0.0
aF0.0
aaaa(lp6008
(lp6009
(lp6010
F272.0
aF264.0
aa(lp6011
F0.0
aF0.0
aa(lp6012
F0.0
aF0.0
aa(lp6013
F0.0
aF0.0
aaag6003
aa(lp6014
g6009
a(lp6015
(lp6016
F763.0
aF254.0
aa(lp6017
F0.0
aF0.0
aa(lp6018
F0.0
aF0.0
aa(lp6019
F0.0
aF0.0
aaaa(lp6020
(lp6021
(lp6022
F245.0
aF250.0
aa(lp6023
F0.0
aF0.0
aa(lp6024
F0.0
aF0.0
aa(lp6025
F0.0
aF0.0
aaag6015
aa(lp6026
g6021
a(lp6027
(lp6028
F748.0
aF244.0
aa(lp6029
F0.0
aF0.0
aa(lp6030
F0.0
aF0.0
aa(lp6031
F0.0
aF0.0
aaaa(lp6032
(lp6033
(lp6034
F237.0
aF245.0
aa(lp6035
F0.0
aF0.0
aa(lp6036
F0.0
aF0.0
aa(lp6037
F0.0
aF0.0
aaag6027
aa(lp6038
(lp6039
(lp6040
F231.0
aF239.0
aa(lp6041
F0.0
aF0.0
aa(lp6042
F0.0
aF0.0
aa(lp6043
F0.0
aF0.0
aaa(lp6044
(lp6045
F742.0
aF239.0
aa(lp6046
F0.0
aF0.0
aa(lp6047
F0.0
aF0.0
aa(lp6048
F0.0
aF0.0
aaaa(lp6049
g6039
a(lp6050
(lp6051
F734.0
aF228.0
aa(lp6052
F0.0
aF0.0
aa(lp6053
F0.0
aF0.0
aa(lp6054
F0.0
aF0.0
aaaa(lp6055
(lp6056
(lp6057
F221.0
aF229.0
aa(lp6058
F0.0
aF0.0
aa(lp6059
F0.0
aF0.0
aa(lp6060
F0.0
aF0.0
aaag6050
aa(lp6061
g6056
a(lp6062
(lp6063
F727.0
aF218.0
aa(lp6064
F0.0
aF0.0
aa(lp6065
F0.0
aF0.0
aa(lp6066
F0.0
aF0.0
aaaa(lp6067
(lp6068
(lp6069
F213.0
aF215.0
aa(lp6070
F0.0
aF0.0
aa(lp6071
F0.0
aF0.0
aa(lp6072
F0.0
aF0.0
aaag6062
aa(lp6073
(lp6074
(lp6075
F210.0
aF209.0
aa(lp6076
F0.0
aF0.0
aa(lp6077
F0.0
aF0.0
aa(lp6078
F0.0
aF0.0
aaa(lp6079
(lp6080
F725.0
aF207.0
aa(lp6081
F0.0
aF0.0
aa(lp6082
F0.0
aF0.0
aa(lp6083
F0.0
aF0.0
aaaa(lp6084
(lp6085
(lp6086
F209.0
aF204.0
aa(lp6087
F0.0
aF0.0
aa(lp6088
F0.0
aF0.0
aa(lp6089
F0.0
aF0.0
aaag6079
aa(lp6090
(lp6091
(lp6092
F209.0
aF200.0
aa(lp6093
F0.0
aF0.0
aa(lp6094
F0.0
aF0.0
aa(lp6095
F0.0
aF0.0
aaag6079
aa(lp6096
g6091
a(lp6097
(lp6098
F729.0
aF193.0
aa(lp6099
F0.0
aF0.0
aa(lp6100
F0.0
aF0.0
aa(lp6101
F0.0
aF0.0
aaaa(lp6102
(lp6103
(lp6104
F214.0
aF191.0
aa(lp6105
F0.0
aF0.0
aa(lp6106
F0.0
aF0.0
aa(lp6107
F0.0
aF0.0
aaag6097
aa(lp6108
g6103
a(lp6109
(lp6110
F732.0
aF189.0
aa(lp6111
F0.0
aF0.0
aa(lp6112
F0.0
aF0.0
aa(lp6113
F0.0
aF0.0
aaaa(lp6114
(lp6115
(lp6116
F220.0
aF184.0
aa(lp6117
F0.0
aF0.0
aa(lp6118
F0.0
aF0.0
aa(lp6119
F0.0
aF0.0
aaa(lp6120
(lp6121
F735.0
aF185.0
aa(lp6122
F0.0
aF0.0
aa(lp6123
F0.0
aF0.0
aa(lp6124
F0.0
aF0.0
aaaa(lp6125
(lp6126
(lp6127
F223.0
aF180.0
aa(lp6128
F0.0
aF0.0
aa(lp6129
F0.0
aF0.0
aa(lp6130
F0.0
aF0.0
aaa(lp6131
(lp6132
F740.0
aF182.0
aa(lp6133
F0.0
aF0.0
aa(lp6134
F0.0
aF0.0
aa(lp6135
F0.0
aF0.0
aaaa(lp6136
g6126
a(lp6137
(lp6138
F744.0
aF178.0
aa(lp6139
F0.0
aF0.0
aa(lp6140
F0.0
aF0.0
aa(lp6141
F0.0
aF0.0
aaaa(lp6142
(lp6143
(lp6144
F233.0
aF175.0
aa(lp6145
F0.0
aF0.0
aa(lp6146
F0.0
aF0.0
aa(lp6147
F0.0
aF0.0
aaag6137
aa(lp6148
g6143
a(lp6149
(lp6150
F760.0
aF171.0
aa(lp6151
F0.0
aF0.0
aa(lp6152
F0.0
aF0.0
aa(lp6153
F0.0
aF0.0
aaaa(lp6154
(lp6155
(lp6156
F247.0
aF171.0
aa(lp6157
F0.0
aF0.0
aa(lp6158
F0.0
aF0.0
aa(lp6159
F0.0
aF0.0
aaag6149
aa(lp6160
(lp6161
(lp6162
F247.0
aF171.0
aa(lp6163
F0.0
aF0.0
aa(lp6164
F0.0
aF0.0
aa(lp6165
F0.0
aF0.0
aaa(lp6166
(lp6167
F775.0
aF167.0
aa(lp6168
F0.0
aF0.0
aa(lp6169
F0.0
aF0.0
aa(lp6170
F0.0
aF0.0
aaaa(lp6171
(lp6172
(lp6173
F262.0
aF168.0
aa(lp6174
F0.0
aF0.0
aa(lp6175
F0.0
aF0.0
aa(lp6176
F0.0
aF0.0
aaa(lp6177
(lp6178
F784.0
aF165.0
aa(lp6179
F0.0
aF0.0
aa(lp6180
F0.0
aF0.0
aa(lp6181
F0.0
aF0.0
aaaa(lp6182
(lp6183
(lp6184
F271.0
aF168.0
aa(lp6185
F0.0
aF0.0
aa(lp6186
F0.0
aF0.0
aa(lp6187
F0.0
aF0.0
aaa(lp6188
(lp6189
F793.0
aF165.0
aa(lp6190
F0.0
aF0.0
aa(lp6191
F0.0
aF0.0
aa(lp6192
F0.0
aF0.0
aaaa(lp6193
g6183
a(lp6194
(lp6195
F802.0
aF165.0
aa(lp6196
F0.0
aF0.0
aa(lp6197
F0.0
aF0.0
aa(lp6198
F0.0
aF0.0
aaaa(lp6199
(lp6200
(lp6201
F288.0
aF168.0
aa(lp6202
F0.0
aF0.0
aa(lp6203
F0.0
aF0.0
aa(lp6204
F0.0
aF0.0
aaag6194
aa(lp6205
g6200
a(lp6206
(lp6207
F821.0
aF166.0
aa(lp6208
F0.0
aF0.0
aa(lp6209
F0.0
aF0.0
aa(lp6210
F0.0
aF0.0
aaaa(lp6211
(lp6212
(lp6213
F308.0
aF172.0
aa(lp6214
F0.0
aF0.0
aa(lp6215
F0.0
aF0.0
aa(lp6216
F0.0
aF0.0
aaag6206
aa(lp6217
g6212
a(lp6218
(lp6219
F842.0
aF170.0
aa(lp6220
F0.0
aF0.0
aa(lp6221
F0.0
aF0.0
aa(lp6222
F0.0
aF0.0
aaaa(lp6223
(lp6224
(lp6225
F328.0
aF177.0
aa(lp6226
F0.0
aF0.0
aa(lp6227
F0.0
aF0.0
aa(lp6228
F0.0
aF0.0
aaa(lp6229
(lp6230
F852.0
aF173.0
aa(lp6231
F0.0
aF0.0
aa(lp6232
F0.0
aF0.0
aa(lp6233
F0.0
aF0.0
aaaa(lp6234
(lp6235
(lp6236
F338.0
aF182.0
aa(lp6237
F0.0
aF0.0
aa(lp6238
F0.0
aF0.0
aa(lp6239
F0.0
aF0.0
aaa(lp6240
(lp6241
F862.0
aF177.0
aa(lp6242
F0.0
aF0.0
aa(lp6243
F0.0
aF0.0
aa(lp6244
F0.0
aF0.0
aaaa(lp6245
g6235
a(lp6246
(lp6247
F872.0
aF180.0
aa(lp6248
F0.0
aF0.0
aa(lp6249
F0.0
aF0.0
aa(lp6250
F0.0
aF0.0
aaaa(lp6251
(lp6252
(lp6253
F357.0
aF191.0
aa(lp6254
F0.0
aF0.0
aa(lp6255
F0.0
aF0.0
aa(lp6256
F0.0
aF0.0
aaag6246
aa(lp6257
g6252
a(lp6258
(lp6259
F888.0
aF188.0
aa(lp6260
F0.0
aF0.0
aa(lp6261
F0.0
aF0.0
aa(lp6262
F0.0
aF0.0
aaaa(lp6263
(lp6264
(lp6265
F372.0
aF200.0
aa(lp6266
F0.0
aF0.0
aa(lp6267
F0.0
aF0.0
aa(lp6268
F0.0
aF0.0
aaag6258
aa(lp6269
(lp6270
(lp6271
F377.0
aF206.0
aa(lp6272
F0.0
aF0.0
aa(lp6273
F0.0
aF0.0
aa(lp6274
F0.0
aF0.0
aaa(lp6275
(lp6276
F900.0
aF199.0
aa(lp6277
F0.0
aF0.0
aa(lp6278
F0.0
aF0.0
aa(lp6279
F0.0
aF0.0
aaaa(lp6280
(lp6281
(lp6282
F383.0
aF211.0
aa(lp6283
F0.0
aF0.0
aa(lp6284
F0.0
aF0.0
aa(lp6285
F0.0
aF0.0
aaa(lp6286
(lp6287
F904.0
aF204.0
aa(lp6288
F0.0
aF0.0
aa(lp6289
F0.0
aF0.0
aa(lp6290
F0.0
aF0.0
aaaa(lp6291
(lp6292
(lp6293
F387.0
aF216.0
aa(lp6294
F0.0
aF0.0
aa(lp6295
F0.0
aF0.0
aa(lp6296
F0.0
aF0.0
aaag6286
aa(lp6297
g6292
a(lp6298
(lp6299
F912.0
aF216.0
aa(lp6300
F0.0
aF0.0
aa(lp6301
F0.0
aF0.0
aa(lp6302
F0.0
aF0.0
aaaa(lp6303
(lp6304
(lp6305
F395.0
aF230.0
aa(lp6306
F0.0
aF0.0
aa(lp6307
F0.0
aF0.0
aa(lp6308
F0.0
aF0.0
aaag6298
aa(lp6309
g6304
a(lp6310
(lp6311
F919.0
aF229.0
aa(lp6312
F0.0
aF0.0
aa(lp6313
F0.0
aF0.0
aa(lp6314
F0.0
aF0.0
aaaa(lp6315
(lp6316
(lp6317
F401.0
aF242.0
aa(lp6318
F0.0
aF0.0
aa(lp6319
F0.0
aF0.0
aa(lp6320
F0.0
aF0.0
aaa(lp6321
(lp6322
F920.0
aF236.0
aa(lp6323
F0.0
aF0.0
aa(lp6324
F0.0
aF0.0
aa(lp6325
F0.0
aF0.0
aaaa(lp6326
(lp6327
(lp6328
F405.0
aF249.0
aa(lp6329
F0.0
aF0.0
aa(lp6330
F0.0
aF0.0
aa(lp6331
F0.0
aF0.0
aaa(lp6332
(lp6333
F922.0
aF243.0
aa(lp6334
F0.0
aF0.0
aa(lp6335
F0.0
aF0.0
aa(lp6336
F0.0
aF0.0
aaaa(lp6337
g6327
a(lp6338
(lp6339
F923.0
aF253.0
aa(lp6340
F0.0
aF0.0
aa(lp6341
F0.0
aF0.0
aa(lp6342
F0.0
aF0.0
aaaa(lp6343
(lp6344
(lp6345
F407.0
aF266.0
aa(lp6346
F0.0
aF0.0
aa(lp6347
F0.0
aF0.0
aa(lp6348
F0.0
aF0.0
aaag6338
aa(lp6349
g6344
a(lp6350
(lp6351
F920.0
aF267.0
aa(lp6352
F0.0
aF0.0
aa(lp6353
F0.0
aF0.0
aa(lp6354
F0.0
aF0.0
aaaa(lp6355
(lp6356
(lp6357
F401.0
aF278.0
aa(lp6358
F0.0
aF0.0
aa(lp6359
F0.0
aF0.0
aa(lp6360
F0.0
aF0.0
aaag6350
aa(lp6361
(lp6362
(lp6363
F398.0
aF282.0
aa(lp6364
F0.0
aF0.0
aa(lp6365
F0.0
aF0.0
aa(lp6366
F0.0
aF0.0
aaa(lp6367
(lp6368
F912.0
aF276.0
aa(lp6369
F0.0
aF0.0
aa(lp6370
F0.0
aF0.0
aa(lp6371
F0.0
aF0.0
aaaa(lp6372
(lp6373
(lp6374
F391.0
aF286.0
aa(lp6375
F0.0
aF0.0
aa(lp6376
F0.0
aF0.0
aa(lp6377
F0.0
aF0.0
aaa(lp6378
(lp6379
F904.0
aF282.0
aa(lp6380
F0.0
aF0.0
aa(lp6381
F0.0
aF0.0
aa(lp6382
F0.0
aF0.0
aaaa(lp6383
(lp6384
(lp6385
F384.0
aF289.0
aa(lp6386
F0.0
aF0.0
aa(lp6387
F0.0
aF0.0
aa(lp6388
F0.0
aF0.0
aaag6378
aa(lp6389
g6384
a(lp6390
(lp6391
F888.0
aF286.0
aa(lp6392
F0.0
aF0.0
aa(lp6393
F0.0
aF0.0
aa(lp6394
F0.0
aF0.0
aaaa(lp6395
(lp6396
(lp6397
F368.0
aF294.0
aa(lp6398
F0.0
aF0.0
aa(lp6399
F0.0
aF0.0
aa(lp6400
F0.0
aF0.0
aaag6390
aa(lp6401
g6396
a(lp6402
(lp6403
F871.0
aF291.0
aa(lp6404
F0.0
aF0.0
aa(lp6405
F0.0
aF0.0
aa(lp6406
F0.0
aF0.0
aaaa(lp6407
(lp6408
(lp6409
F351.0
aF296.0
aa(lp6410
F0.0
aF0.0
aa(lp6411
F0.0
aF0.0
aa(lp6412
F0.0
aF0.0
aaag6402
aa(lp6413
g6408
a(lp6414
(lp6415
F849.0
aF292.0
aa(lp6416
F0.0
aF0.0
aa(lp6417
F0.0
aF0.0
aa(lp6418
F0.0
aF0.0
aaaa(lp6419
(lp6420
(lp6421
F341.0
aF295.0
aa(lp6422
F0.0
aF0.0
aa(lp6423
F0.0
aF0.0
aa(lp6424
F0.0
aF0.0
aaa(lp6425
(lp6426
F839.0
aF291.0
aa(lp6427
F0.0
aF0.0
aa(lp6428
F0.0
aF0.0
aa(lp6429
F0.0
aF0.0
aaaa(lp6430
(lp6431
(lp6432
F317.0
aF292.0
aa(lp6433
F0.0
aF0.0
aa(lp6434
F0.0
aF0.0
aa(lp6435
F0.0
aF0.0
aaag6425
aa(lp6436
g6431
a(lp6437
(lp6438
F812.0
aF287.0
aa(lp6439
F0.0
aF0.0
aa(lp6440
F0.0
aF0.0
aa(lp6441
F0.0
aF0.0
aaaa(lp6442
(lp6443
(lp6444
F290.0
aF285.0
aa(lp6445
F0.0
aF0.0
aa(lp6446
F0.0
aF0.0
aa(lp6447
F0.0
aF0.0
aaag6437
aa(lp6448
g6443
a(lp6449
(lp6450
F785.0
aF279.0
aa(lp6451
F0.0
aF0.0
aa(lp6452
F0.0
aF0.0
aa(lp6453
F0.0
aF0.0
aaaa(lp6454
(lp6455
(lp6456
F277.0
aF280.0
aa(lp6457
F0.0
aF0.0
aa(lp6458
F0.0
aF0.0
aa(lp6459
F0.0
aF0.0
aaag6449
aa(lp6460
(lp6461
(lp6462
F253.0
aF271.0
aa(lp6463
F0.0
aF0.0
aa(lp6464
F0.0
aF0.0
aa(lp6465
F0.0
aF0.0
aaa(lp6466
(lp6467
F761.0
aF270.0
aa(lp6468
F0.0
aF0.0
aa(lp6469
F0.0
aF0.0
aa(lp6470
F0.0
aF0.0
aaaa(lp6471
g6461
a(lp6472
(lp6473
F751.0
aF266.0
aa(lp6474
F0.0
aF0.0
aa(lp6475
F0.0
aF0.0
aa(lp6476
F0.0
aF0.0
aaaa(lp6477
(lp6478
(lp6479
F234.0
aF261.0
aa(lp6480
F0.0
aF0.0
aa(lp6481
F0.0
aF0.0
aa(lp6482
F0.0
aF0.0
aaag6472
aa(lp6483
g6478
a(lp6484
(lp6485
F738.0
aF255.0
aa(lp6486
F0.0
aF0.0
aa(lp6487
F0.0
aF0.0
aa(lp6488
F0.0
aF0.0
aaaa(lp6489
(lp6490
(lp6491
F223.0
aF251.0
aa(lp6492
F0.0
aF0.0
aa(lp6493
F0.0
aF0.0
aa(lp6494
F0.0
aF0.0
aaag6484
aa(lp6495
(lp6496
(lp6497
F220.0
aF247.0
aa(lp6498
F0.0
aF0.0
aa(lp6499
F0.0
aF0.0
aa(lp6500
F0.0
aF0.0
aaa(lp6501
(lp6502
F731.0
aF248.0
aa(lp6503
F0.0
aF0.0
aa(lp6504
F0.0
aF0.0
aa(lp6505
F0.0
aF0.0
aaaa(lp6506
(lp6507
(lp6508
F218.0
aF243.0
aa(lp6509
F0.0
aF0.0
aa(lp6510
F0.0
aF0.0
aa(lp6511
F0.0
aF0.0
aaa(lp6512
(lp6513
F728.0
aF243.0
aa(lp6514
F0.0
aF0.0
aa(lp6515
F0.0
aF0.0
aa(lp6516
F0.0
aF0.0
aaaa(lp6517
(lp6518
(lp6519
F218.0
aF238.0
aa(lp6520
F0.0
aF0.0
aa(lp6521
F0.0
aF0.0
aa(lp6522
F0.0
aF0.0
aaag6512
aa(lp6523
g6518
a(lp6524
(lp6525
F733.0
aF235.0
aa(lp6526
F0.0
aF0.0
aa(lp6527
F0.0
aF0.0
aa(lp6528
F0.0
aF0.0
aaaa(lp6529
(lp6530
(lp6531
F224.0
aF233.0
aa(lp6532
F0.0
aF0.0
aa(lp6533
F0.0
aF0.0
aa(lp6534
F0.0
aF0.0
aaag6524
aa(lp6535
g6530
a(lp6536
(lp6537
F740.0
aF232.0
aa(lp6538
F0.0
aF0.0
aa(lp6539
F0.0
aF0.0
aa(lp6540
F0.0
aF0.0
aaaa(lp6541
(lp6542
(lp6543
F229.0
aF232.0
aa(lp6544
F0.0
aF0.0
aa(lp6545
F0.0
aF0.0
aa(lp6546
F0.0
aF0.0
aaag6536
aa(lp6547
(lp6548
(lp6549
F241.0
aF231.0
aa(lp6550
F0.0
aF0.0
aa(lp6551
F0.0
aF0.0
aa(lp6552
F0.0
aF0.0
aaag6536
aa(lp6553
g6548
a(lp6554
(lp6555
F763.0
aF231.0
aa(lp6556
F0.0
aF0.0
aa(lp6557
F0.0
aF0.0
aa(lp6558
F0.0
aF0.0
aaaa(lp6559
g6548
ag6554
aa(lp6560
g6548
a(lp6561
(lp6562
F782.0
aF233.0
aa(lp6563
F0.0
aF0.0
aa(lp6564
F0.0
aF0.0
aa(lp6565
F0.0
aF0.0
aaaa(lp6566
(lp6567
(lp6568
F259.0
aF232.0
aa(lp6569
F0.0
aF0.0
aa(lp6570
F0.0
aF0.0
aa(lp6571
F0.0
aF0.0
aaag6561
aa(lp6572
g6567
a(lp6573
(lp6574
F804.0
aF239.0
aa(lp6575
F0.0
aF0.0
aa(lp6576
F0.0
aF0.0
aa(lp6577
F0.0
aF0.0
aaaa(lp6578
(lp6579
(lp6580
F303.0
aF246.0
aa(lp6581
F0.0
aF0.0
aa(lp6582
F0.0
aF0.0
aa(lp6583
F0.0
aF0.0
aaag6573
aa(lp6584
(lp6585
(lp6586
F314.0
aF250.0
aa(lp6587
F0.0
aF0.0
aa(lp6588
F0.0
aF0.0
aa(lp6589
F0.0
aF0.0
aaa(lp6590
(lp6591
F828.0
aF247.0
aa(lp6592
F0.0
aF0.0
aa(lp6593
F0.0
aF0.0
aa(lp6594
F0.0
aF0.0
aaaa(lp6595
g6585
a(lp6596
(lp6597
F840.0
aF252.0
aa(lp6598
F0.0
aF0.0
aa(lp6599
F0.0
aF0.0
aa(lp6600
F0.0
aF0.0
aaaa(lp6601
(lp6602
(lp6603
F340.0
aF263.0
aa(lp6604
F0.0
aF0.0
aa(lp6605
F0.0
aF0.0
aa(lp6606
F0.0
aF0.0
aaag6596
aa(lp6607
g6602
a(lp6608
(lp6609
F865.0
aF266.0
aa(lp6610
F0.0
aF0.0
aa(lp6611
F0.0
aF0.0
aa(lp6612
F0.0
aF0.0
aaaa(lp6613
(lp6614
(lp6615
F366.0
aF279.0
aa(lp6616
F0.0
aF0.0
aa(lp6617
F0.0
aF0.0
aa(lp6618
F0.0
aF0.0
aaag6608
aa(lp6619
g6614
a(lp6620
(lp6621
F890.0
aF281.0
aa(lp6622
F0.0
aF0.0
aa(lp6623
F0.0
aF0.0
aa(lp6624
F0.0
aF0.0
aaaa(lp6625
(lp6626
(lp6627
F377.0
aF286.0
aa(lp6628
F0.0
aF0.0
aa(lp6629
F0.0
aF0.0
aa(lp6630
F0.0
aF0.0
aaag6620
aa(lp6631
(lp6632
(lp6633
F402.0
aF303.0
aa(lp6634
F0.0
aF0.0
aa(lp6635
F0.0
aF0.0
aa(lp6636
F0.0
aF0.0
aaag6620
aa(lp6637
g6632
a(lp6638
(lp6639
F925.0
aF307.0
aa(lp6640
F0.0
aF0.0
aa(lp6641
F0.0
aF0.0
aa(lp6642
F0.0
aF0.0
aaaa(lp6643
(lp6644
(lp6645
F424.0
aF321.0
aa(lp6646
F0.0
aF0.0
aa(lp6647
F0.0
aF0.0
aa(lp6648
F0.0
aF0.0
aaag6638
aa(lp6649
g6644
a(lp6650
(lp6651
F944.0
aF324.0
aa(lp6652
F0.0
aF0.0
aa(lp6653
F0.0
aF0.0
aa(lp6654
F0.0
aF0.0
aaaa(lp6655
(lp6656
(lp6657
F433.0
aF330.0
aa(lp6658
F0.0
aF0.0
aa(lp6659
F0.0
aF0.0
aa(lp6660
F0.0
aF0.0
aaag6650
aa(lp6661
(lp6662
(lp6663
F440.0
aF339.0
aa(lp6664
F0.0
aF0.0
aa(lp6665
F0.0
aF0.0
aa(lp6666
F0.0
aF0.0
aaa(lp6667
(lp6668
F951.0
aF332.0
aa(lp6669
F0.0
aF0.0
aa(lp6670
F0.0
aF0.0
aa(lp6671
F0.0
aF0.0
aaaa(lp6672
g6662
a(lp6673
(lp6674
F959.0
aF348.0
aa(lp6675
F0.0
aF0.0
aa(lp6676
F0.0
aF0.0
aa(lp6677
F0.0
aF0.0
aaaa(lp6678
(lp6679
(lp6680
F454.0
aF365.0
aa(lp6681
F0.0
aF0.0
aa(lp6682
F0.0
aF0.0
aa(lp6683
F0.0
aF0.0
aaag6673
aa(lp6684
g6679
a(lp6685
(lp6686
F960.0
aF363.0
aa(lp6687
F0.0
aF0.0
aa(lp6688
F0.0
aF0.0
aa(lp6689
F0.0
aF0.0
aaaa(lp6690
(lp6691
(lp6692
F453.0
aF376.0
aa(lp6693
F0.0
aF0.0
aa(lp6694
F0.0
aF0.0
aa(lp6695
F0.0
aF0.0
aaag6685
aa(lp6696
g6691
a(lp6697
(lp6698
F959.0
aF369.0
aa(lp6699
F0.0
aF0.0
aa(lp6700
F0.0
aF0.0
aa(lp6701
F0.0
aF0.0
aaaa(lp6702
(lp6703
(lp6704
F450.0
aF383.0
aa(lp6705
F0.0
aF0.0
aa(lp6706
F0.0
aF0.0
aa(lp6707
F0.0
aF0.0
aaa(lp6708
(lp6709
F957.0
aF375.0
aa(lp6710
F0.0
aF0.0
aa(lp6711
F0.0
aF0.0
aa(lp6712
F0.0
aF0.0
aaaa(lp6713
(lp6714
(lp6715
F445.0
aF392.0
aa(lp6716
F0.0
aF0.0
aa(lp6717
F0.0
aF0.0
aa(lp6718
F0.0
aF0.0
aaag6708
aa(lp6719
g6714
a(lp6720
(lp6721
F944.0
aF389.0
aa(lp6722
F0.0
aF0.0
aa(lp6723
F0.0
aF0.0
aa(lp6724
F0.0
aF0.0
aaaa(lp6725
(lp6726
(lp6727
F437.0
aF400.0
aa(lp6728
F0.0
aF0.0
aa(lp6729
F0.0
aF0.0
aa(lp6730
F0.0
aF0.0
aaag6720
aa(lp6731
g6726
a(lp6732
(lp6733
F931.0
aF400.0
aa(lp6734
F0.0
aF0.0
aa(lp6735
F0.0
aF0.0
aa(lp6736
F0.0
aF0.0
aaaa(lp6737
(lp6738
(lp6739
F431.0
aF405.0
aa(lp6740
F0.0
aF0.0
aa(lp6741
F0.0
aF0.0
aa(lp6742
F0.0
aF0.0
aaag6732
aa(lp6743
(lp6744
(lp6745
F424.0
aF408.0
aa(lp6746
F0.0
aF0.0
aa(lp6747
F0.0
aF0.0
aa(lp6748
F0.0
aF0.0
aaag6732
aa(lp6749
g6744
a(lp6750
(lp6751
F916.0
aF407.0
aa(lp6752
F0.0
aF0.0
aa(lp6753
F0.0
aF0.0
aa(lp6754
F0.0
aF0.0
aaaa(lp6755
(lp6756
(lp6757
F408.0
aF412.0
aa(lp6758
F0.0
aF0.0
aa(lp6759
F0.0
aF0.0
aa(lp6760
F0.0
aF0.0
aaag6750
aa(lp6761
(lp6762
(lp6763
F399.0
aF414.0
aa(lp6764
F0.0
aF0.0
aa(lp6765
F0.0
aF0.0
aa(lp6766
F0.0
aF0.0
aaa(lp6767
(lp6768
F896.0
aF411.0
aa(lp6769
F0.0
aF0.0
aa(lp6770
F0.0
aF0.0
aa(lp6771
F0.0
aF0.0
aaaa(lp6772
(lp6773
(lp6774
F390.0
aF415.0
aa(lp6775
F0.0
aF0.0
aa(lp6776
F0.0
aF0.0
aa(lp6777
F0.0
aF0.0
aaa(lp6778
(lp6779
F887.0
aF411.0
aa(lp6780
F0.0
aF0.0
aa(lp6781
F0.0
aF0.0
aa(lp6782
F0.0
aF0.0
aaaa(lp6783
(lp6784
(lp6785
F378.0
aF415.0
aa(lp6786
F0.0
aF0.0
aa(lp6787
F0.0
aF0.0
aa(lp6788
F0.0
aF0.0
aaa(lp6789
(lp6790
F875.0
aF411.0
aa(lp6791
F0.0
aF0.0
aa(lp6792
F0.0
aF0.0
aa(lp6793
F0.0
aF0.0
aaaa(lp6794
g6784
a(lp6795
(lp6796
F864.0
aF411.0
aa(lp6797
F0.0
aF0.0
aa(lp6798
F0.0
aF0.0
aa(lp6799
F0.0
aF0.0
aaaa(lp6800
(lp6801
(lp6802
F357.0
aF412.0
aa(lp6803
F0.0
aF0.0
aa(lp6804
F0.0
aF0.0
aa(lp6805
F0.0
aF0.0
aaag6795
aa(lp6806
(lp6807
(lp6808
F344.0
aF410.0
aa(lp6809
F0.0
aF0.0
aa(lp6810
F0.0
aF0.0
aa(lp6811
F0.0
aF0.0
aaa(lp6812
(lp6813
F840.0
aF410.0
aa(lp6814
F0.0
aF0.0
aa(lp6815
F0.0
aF0.0
aa(lp6816
F0.0
aF0.0
aaaa(lp6817
(lp6818
(lp6819
F333.0
aF408.0
aa(lp6820
F0.0
aF0.0
aa(lp6821
F0.0
aF0.0
aa(lp6822
F0.0
aF0.0
aaa(lp6823
(lp6824
F828.0
aF408.0
aa(lp6825
F0.0
aF0.0
aa(lp6826
F0.0
aF0.0
aa(lp6827
F0.0
aF0.0
aaaa(lp6828
(lp6829
(lp6830
F320.0
aF406.0
aa(lp6831
F0.0
aF0.0
aa(lp6832
F0.0
aF0.0
aa(lp6833
F0.0
aF0.0
aaa(lp6834
(lp6835
F816.0
aF404.0
aa(lp6836
F0.0
aF0.0
aa(lp6837
F0.0
aF0.0
aa(lp6838
F0.0
aF0.0
aaaa(lp6839
(lp6840
(lp6841
F310.0
aF401.0
aa(lp6842
F0.0
aF0.0
aa(lp6843
F0.0
aF0.0
aa(lp6844
F0.0
aF0.0
aaa(lp6845
(lp6846
F804.0
aF401.0
aa(lp6847
F0.0
aF0.0
aa(lp6848
F0.0
aF0.0
aa(lp6849
F0.0
aF0.0
aaaa(lp6850
(lp6851
(lp6852
F297.0
aF399.0
aa(lp6853
F0.0
aF0.0
aa(lp6854
F0.0
aF0.0
aa(lp6855
F0.0
aF0.0
aaag6845
aa(lp6856
g6851
a(lp6857
(lp6858
F783.0
aF395.0
aa(lp6859
F0.0
aF0.0
aa(lp6860
F0.0
aF0.0
aa(lp6861
F0.0
aF0.0
aaaa(lp6862
(lp6863
(lp6864
F278.0
aF391.0
aa(lp6865
F0.0
aF0.0
aa(lp6866
F0.0
aF0.0
aa(lp6867
F0.0
aF0.0
aaag6857
aa(lp6868
(lp6869
(lp6870
F271.0
aF386.0
aa(lp6871
F0.0
aF0.0
aa(lp6872
F0.0
aF0.0
aa(lp6873
F0.0
aF0.0
aaa(lp6874
(lp6875
F766.0
aF387.0
aa(lp6876
F0.0
aF0.0
aa(lp6877
F0.0
aF0.0
aa(lp6878
F0.0
aF0.0
aaaa(lp6879
(lp6880
(lp6881
F264.0
aF382.0
aa(lp6882
F0.0
aF0.0
aa(lp6883
F0.0
aF0.0
aa(lp6884
F0.0
aF0.0
aaa(lp6885
(lp6886
F759.0
aF383.0
aa(lp6887
F0.0
aF0.0
aa(lp6888
F0.0
aF0.0
aa(lp6889
F0.0
aF0.0
aaaa(lp6890
(lp6891
(lp6892
F259.0
aF378.0
aa(lp6893
F0.0
aF0.0
aa(lp6894
F0.0
aF0.0
aa(lp6895
F0.0
aF0.0
aaa(lp6896
(lp6897
F754.0
aF379.0
aa(lp6898
F0.0
aF0.0
aa(lp6899
F0.0
aF0.0
aa(lp6900
F0.0
aF0.0
aaaa(lp6901
g6891
a(lp6902
(lp6903
F753.0
aF375.0
aa(lp6904
F0.0
aF0.0
aa(lp6905
F0.0
aF0.0
aa(lp6906
F0.0
aF0.0
aaaa(lp6907
(lp6908
(lp6909
F256.0
aF371.0
aa(lp6910
F0.0
aF0.0
aa(lp6911
F0.0
aF0.0
aa(lp6912
F0.0
aF0.0
aaag6902
aa(lp6913
g6908
a(lp6914
(lp6915
F752.0
aF369.0
aa(lp6916
F0.0
aF0.0
aa(lp6917
F0.0
aF0.0
aa(lp6918
F0.0
aF0.0
aaaa(lp6919
(lp6920
(lp6921
F256.0
aF365.0
aa(lp6922
F0.0
aF0.0
aa(lp6923
F0.0
aF0.0
aa(lp6924
F0.0
aF0.0
aaag6914
aa(lp6925
(lp6926
(lp6927
F262.0
aF361.0
aa(lp6928
F0.0
aF0.0
aa(lp6929
F0.0
aF0.0
aa(lp6930
F0.0
aF0.0
aaa(lp6931
(lp6932
F759.0
aF363.0
aa(lp6933
F0.0
aF0.0
aa(lp6934
F0.0
aF0.0
aa(lp6935
F0.0
aF0.0
aaaa(lp6936
(lp6937
(lp6938
F265.0
aF359.0
aa(lp6939
F0.0
aF0.0
aa(lp6940
F0.0
aF0.0
aa(lp6941
F0.0
aF0.0
aaa(lp6942
(lp6943
F760.0
aF361.0
aa(lp6944
F0.0
aF0.0
aa(lp6945
F0.0
aF0.0
aa(lp6946
F0.0
aF0.0
aaaa(lp6947
(lp6948
(lp6949
F271.0
aF358.0
aa(lp6950
F0.0
aF0.0
aa(lp6951
F0.0
aF0.0
aa(lp6952
F0.0
aF0.0
aaag6942
aa(lp6953
g6948
a(lp6954
(lp6955
F775.0
aF356.0
aa(lp6956
F0.0
aF0.0
aa(lp6957
F0.0
aF0.0
aa(lp6958
F0.0
aF0.0
aaaa(lp6959
(lp6960
(lp6961
F281.0
aF356.0
aa(lp6962
F0.0
aF0.0
aa(lp6963
F0.0
aF0.0
aa(lp6964
F0.0
aF0.0
aaag6954
aa(lp6965
g6960
a(lp6966
(lp6967
F791.0
aF355.0
aa(lp6968
F0.0
aF0.0
aa(lp6969
F0.0
aF0.0
aa(lp6970
F0.0
aF0.0
aaaa(lp6971
(lp6972
(lp6973
F298.0
aF357.0
aa(lp6974
F0.0
aF0.0
aa(lp6975
F0.0
aF0.0
aa(lp6976
F0.0
aF0.0
aaag6966
aa(lp6977
(lp6978
(lp6979
F307.0
aF358.0
aa(lp6980
F0.0
aF0.0
aa(lp6981
F0.0
aF0.0
aa(lp6982
F0.0
aF0.0
aaa(lp6983
(lp6984
F808.0
aF356.0
aa(lp6985
F0.0
aF0.0
aa(lp6986
F0.0
aF0.0
aa(lp6987
F0.0
aF0.0
aaaa(lp6988
(lp6989
(lp6990
F318.0
aF360.0
aa(lp6991
F0.0
aF0.0
aa(lp6992
F0.0
aF0.0
aa(lp6993
F0.0
aF0.0
aaa(lp6994
(lp6995
F818.0
aF358.0
aa(lp6996
F0.0
aF0.0
aa(lp6997
F0.0
aF0.0
aa(lp6998
F0.0
aF0.0
aaaa(lp6999
(lp7000
(lp7001
F328.0
aF362.0
aa(lp7002
F0.0
aF0.0
aa(lp7003
F0.0
aF0.0
aa(lp7004
F0.0
aF0.0
aaag6994
aa(lp7005
g7000
a(lp7006
(lp7007
F840.0
aF364.0
aa(lp7008
F0.0
aF0.0
aa(lp7009
F0.0
aF0.0
aa(lp7010
F0.0
aF0.0
aaaa(lp7011
(lp7012
(lp7013
F352.0
aF371.0
aa(lp7014
F0.0
aF0.0
aa(lp7015
F0.0
aF0.0
aa(lp7016
F0.0
aF0.0
aaag7006
aa(lp7017
g7012
a(lp7018
(lp7019
F866.0
aF374.0
aa(lp7020
F0.0
aF0.0
aa(lp7021
F0.0
aF0.0
aa(lp7022
F0.0
aF0.0
aaaa(lp7023
(lp7024
(lp7025
F379.0
aF383.0
aa(lp7026
F0.0
aF0.0
aa(lp7027
F0.0
aF0.0
aa(lp7028
F0.0
aF0.0
aaa(lp7029
(lp7030
F880.0
aF380.0
aa(lp7031
F0.0
aF0.0
aa(lp7032
F0.0
aF0.0
aa(lp7033
F0.0
aF0.0
aaaa(lp7034
(lp7035
(lp7036
F392.0
aF390.0
aa(lp7037
F0.0
aF0.0
aa(lp7038
F0.0
aF0.0
aa(lp7039
F0.0
aF0.0
aaa(lp7040
(lp7041
F892.0
aF386.0
aa(lp7042
F0.0
aF0.0
aa(lp7043
F0.0
aF0.0
aa(lp7044
F0.0
aF0.0
aaaa(lp7045
g7035
a(lp7046
(lp7047
F904.0
aF394.0
aa(lp7048
F0.0
aF0.0
aa(lp7049
F0.0
aF0.0
aa(lp7050
F0.0
aF0.0
aaaa(lp7051
(lp7052
(lp7053
F415.0
aF404.0
aa(lp7054
F0.0
aF0.0
aa(lp7055
F0.0
aF0.0
aa(lp7056
F0.0
aF0.0
aaag7046
aa(lp7057
g7052
a(lp7058
(lp7059
F924.0
aF408.0
aa(lp7060
F0.0
aF0.0
aa(lp7061
F0.0
aF0.0
aa(lp7062
F0.0
aF0.0
aaaa(lp7063
(lp7064
(lp7065
F432.0
aF418.0
aa(lp7066
F0.0
aF0.0
aa(lp7067
F0.0
aF0.0
aa(lp7068
F0.0
aF0.0
aaag7058
aa(lp7069
g7064
a(lp7070
(lp7071
F938.0
aF423.0
aa(lp7072
F0.0
aF0.0
aa(lp7073
F0.0
aF0.0
aa(lp7074
F0.0
aF0.0
aaaa(lp7075
(lp7076
(lp7077
F447.0
aF433.0
aa(lp7078
F0.0
aF0.0
aa(lp7079
F0.0
aF0.0
aa(lp7080
F0.0
aF0.0
aaa(lp7081
(lp7082
F944.0
aF429.0
aa(lp7083
F0.0
aF0.0
aa(lp7084
F0.0
aF0.0
aa(lp7085
F0.0
aF0.0
aaaa(lp7086
(lp7087
(lp7088
F455.0
aF441.0
aa(lp7089
F0.0
aF0.0
aa(lp7090
F0.0
aF0.0
aa(lp7091
F0.0
aF0.0
aaa(lp7092
(lp7093
F952.0
aF436.0
aa(lp7094
F0.0
aF0.0
aa(lp7095
F0.0
aF0.0
aa(lp7096
F0.0
aF0.0
aaaa(lp7097
g7087
a(lp7098
(lp7099
F958.0
aF446.0
aa(lp7100
F0.0
aF0.0
aa(lp7101
F0.0
aF0.0
aa(lp7102
F0.0
aF0.0
aaaa(lp7103
(lp7104
(lp7105
F464.0
aF457.0
aa(lp7106
F0.0
aF0.0
aa(lp7107
F0.0
aF0.0
aa(lp7108
F0.0
aF0.0
aaag7098
aa(lp7109
g7104
a(lp7110
(lp7111
F964.0
aF461.0
aa(lp7112
F0.0
aF0.0
aa(lp7113
F0.0
aF0.0
aa(lp7114
F0.0
aF0.0
aaaa(lp7115
(lp7116
(lp7117
F471.0
aF472.0
aa(lp7118
F0.0
aF0.0
aa(lp7119
F0.0
aF0.0
aa(lp7120
F0.0
aF0.0
aaag7110
aa(lp7121
g7116
a(lp7122
(lp7123
F966.0
aF475.0
aa(lp7124
F0.0
aF0.0
aa(lp7125
F0.0
aF0.0
aa(lp7126
F0.0
aF0.0
aaaa(lp7127
(lp7128
(lp7129
F470.0
aF488.0
aa(lp7130
F0.0
aF0.0
aa(lp7131
F0.0
aF0.0
aa(lp7132
F0.0
aF0.0
aaa(lp7133
(lp7134
F962.0
aF482.0
aa(lp7135
F0.0
aF0.0
aa(lp7136
F0.0
aF0.0
aa(lp7137
F0.0
aF0.0
aaaa(lp7138
(lp7139
(lp7140
F468.0
aF495.0
aa(lp7141
F0.0
aF0.0
aa(lp7142
F0.0
aF0.0
aa(lp7143
F0.0
aF0.0
aaag7133
aa(lp7144
g7139
a(lp7145
(lp7146
F959.0
aF492.0
aa(lp7147
F0.0
aF0.0
aa(lp7148
F0.0
aF0.0
aa(lp7149
F0.0
aF0.0
aaaa(lp7150
(lp7151
(lp7152
F461.0
aF504.0
aa(lp7153
F0.0
aF0.0
aa(lp7154
F0.0
aF0.0
aa(lp7155
F0.0
aF0.0
aaag7145
aa(lp7156
g7151
a(lp7157
(lp7158
F949.0
aF503.0
aa(lp7159
F0.0
aF0.0
aa(lp7160
F0.0
aF0.0
aa(lp7161
F0.0
aF0.0
aaaa(lp7162
(lp7163
(lp7164
F451.0
aF511.0
aa(lp7165
F0.0
aF0.0
aa(lp7166
F0.0
aF0.0
aa(lp7167
F0.0
aF0.0
aaag7157
aa(lp7168
g7163
a(lp7169
(lp7170
F934.0
aF513.0
aa(lp7171
F0.0
aF0.0
aa(lp7172
F0.0
aF0.0
aa(lp7173
F0.0
aF0.0
aaaa(lp7174
(lp7175
(lp7176
F447.0
aF514.0
aa(lp7177
F0.0
aF0.0
aa(lp7178
F0.0
aF0.0
aa(lp7179
F0.0
aF0.0
aaa(lp7180
(lp7181
F927.0
aF515.0
aa(lp7182
F0.0
aF0.0
aa(lp7183
F0.0
aF0.0
aa(lp7184
F0.0
aF0.0
aaaa(lp7185
(lp7186
(lp7187
F432.0
aF519.0
aa(lp7188
F0.0
aF0.0
aa(lp7189
F0.0
aF0.0
aa(lp7190
F0.0
aF0.0
aaag7180
aa(lp7191
g7186
a(lp7192
(lp7193
F911.0
aF520.0
aa(lp7194
F0.0
aF0.0
aa(lp7195
F0.0
aF0.0
aa(lp7196
F0.0
aF0.0
aaaa(lp7197
(lp7198
(lp7199
F416.0
aF521.0
aa(lp7200
F0.0
aF0.0
aa(lp7201
F0.0
aF0.0
aa(lp7202
F0.0
aF0.0
aaag7192
aa(lp7203
g7198
a(lp7204
(lp7205
F893.0
aF520.0
aa(lp7206
F0.0
aF0.0
aa(lp7207
F0.0
aF0.0
aa(lp7208
F0.0
aF0.0
aaaa(lp7209
(lp7210
(lp7211
F398.0
aF520.0
aa(lp7212
F0.0
aF0.0
aa(lp7213
F0.0
aF0.0
aa(lp7214
F0.0
aF0.0
aaag7204
aa(lp7215
g7210
a(lp7216
(lp7217
F882.0
aF520.0
aa(lp7218
F0.0
aF0.0
aa(lp7219
F0.0
aF0.0
aa(lp7220
F0.0
aF0.0
aaaa(lp7221
g7210
a(lp7222
(lp7223
F863.0
aF516.0
aa(lp7224
F0.0
aF0.0
aa(lp7225
F0.0
aF0.0
aa(lp7226
F0.0
aF0.0
aaaa(lp7227
(lp7228
(lp7229
F368.0
aF514.0
aa(lp7230
F0.0
aF0.0
aa(lp7231
F0.0
aF0.0
aa(lp7232
F0.0
aF0.0
aaag7222
aa(lp7233
g7228
a(lp7234
(lp7235
F843.0
aF512.0
aa(lp7236
F0.0
aF0.0
aa(lp7237
F0.0
aF0.0
aa(lp7238
F0.0
aF0.0
aaaa(lp7239
(lp7240
(lp7241
F351.0
aF507.0
aa(lp7242
F0.0
aF0.0
aa(lp7243
F0.0
aF0.0
aa(lp7244
F0.0
aF0.0
aaag7234
aa(lp7245
g7240
a(lp7246
(lp7247
F827.0
aF504.0
aa(lp7248
F0.0
aF0.0
aa(lp7249
F0.0
aF0.0
aa(lp7250
F0.0
aF0.0
aaaa(lp7251
(lp7252
(lp7253
F343.0
aF503.0
aa(lp7254
F0.0
aF0.0
aa(lp7255
F0.0
aF0.0
aa(lp7256
F0.0
aF0.0
aaag7246
aa(lp7257
(lp7258
(lp7259
F335.0
aF499.0
aa(lp7260
F0.0
aF0.0
aa(lp7261
F0.0
aF0.0
aa(lp7262
F0.0
aF0.0
aaag7246
aa(lp7263
g7258
a(lp7264
(lp7265
F808.0
aF491.0
aa(lp7266
F0.0
aF0.0
aa(lp7267
F0.0
aF0.0
aa(lp7268
F0.0
aF0.0
aaaa(lp7269
(lp7270
(lp7271
F324.0
aF489.0
aa(lp7272
F0.0
aF0.0
aa(lp7273
F0.0
aF0.0
aa(lp7274
F0.0
aF0.0
aaag7264
aa(lp7275
(lp7276
(lp7277
F320.0
aF486.0
aa(lp7278
F0.0
aF0.0
aa(lp7279
F0.0
aF0.0
aa(lp7280
F0.0
aF0.0
aaa(lp7281
(lp7282
F800.0
aF482.0
aa(lp7283
F0.0
aF0.0
aa(lp7284
F0.0
aF0.0
aa(lp7285
F0.0
aF0.0
aaaa(lp7286
(lp7287
(lp7288
F312.0
aF476.0
aa(lp7289
F0.0
aF0.0
aa(lp7290
F0.0
aF0.0
aa(lp7291
F0.0
aF0.0
aaag7281
aa(lp7292
g7287
a(lp7293
(lp7294
F798.0
aF472.0
aa(lp7295
F0.0
aF0.0
aa(lp7296
F0.0
aF0.0
aa(lp7297
F0.0
aF0.0
aaaa(lp7298
g7287
a(lp7299
(lp7300
F799.0
aF468.0
aa(lp7301
F0.0
aF0.0
aa(lp7302
F0.0
aF0.0
aa(lp7303
F0.0
aF0.0
aaaa(lp7304
(lp7305
(lp7306
F311.0
aF463.0
aa(lp7307
F0.0
aF0.0
aa(lp7308
F0.0
aF0.0
aa(lp7309
F0.0
aF0.0
aaag7299
aa(lp7310
g7305
a(lp7311
(lp7312
F800.0
aF460.0
aa(lp7313
F0.0
aF0.0
aa(lp7314
F0.0
aF0.0
aa(lp7315
F0.0
aF0.0
aaaa(lp7316
(lp7317
(lp7318
F311.0
aF457.0
aa(lp7319
F0.0
aF0.0
aa(lp7320
F0.0
aF0.0
aa(lp7321
F0.0
aF0.0
aaag7311
aa(lp7322
(lp7323
(lp7324
F313.0
aF454.0
aa(lp7325
F0.0
aF0.0
aa(lp7326
F0.0
aF0.0
aa(lp7327
F0.0
aF0.0
aaa(lp7328
(lp7329
F804.0
aF453.0
aa(lp7330
F0.0
aF0.0
aa(lp7331
F0.0
aF0.0
aa(lp7332
F0.0
aF0.0
aaaa(lp7333
(lp7334
(lp7335
F317.0
aF450.0
aa(lp7336
F0.0
aF0.0
aa(lp7337
F0.0
aF0.0
aa(lp7338
F0.0
aF0.0
aaag7328
aa(lp7339
(lp7340
(lp7341
F319.0
aF448.0
aa(lp7342
F0.0
aF0.0
aa(lp7343
F0.0
aF0.0
aa(lp7344
F0.0
aF0.0
aaag7328
aa(lp7345
g7340
a(lp7346
(lp7347
F816.0
aF444.0
aa(lp7348
F0.0
aF0.0
aa(lp7349
F0.0
aF0.0
aa(lp7350
F0.0
aF0.0
aaaa(lp7351
(lp7352
(lp7353
F327.0
aF443.0
aa(lp7354
F0.0
aF0.0
aa(lp7355
F0.0
aF0.0
aa(lp7356
F0.0
aF0.0
aaag7346
aa(lp7357
(lp7358
(lp7359
F333.0
aF441.0
aa(lp7360
F0.0
aF0.0
aa(lp7361
F0.0
aF0.0
aa(lp7362
F0.0
aF0.0
aaa(lp7363
(lp7364
F826.0
aF441.0
aa(lp7365
F0.0
aF0.0
aa(lp7366
F0.0
aF0.0
aa(lp7367
F0.0
aF0.0
aaaa(lp7368
(lp7369
(lp7370
F338.0
aF440.0
aa(lp7371
F0.0
aF0.0
aa(lp7372
F0.0
aF0.0
aa(lp7373
F0.0
aF0.0
aaag7363
aa(lp7374
(lp7375
(lp7376
F344.0
aF440.0
aa(lp7377
F0.0
aF0.0
aa(lp7378
F0.0
aF0.0
aa(lp7379
F0.0
aF0.0
aaa(lp7380
(lp7381
F832.0
aF441.0
aa(lp7382
F0.0
aF0.0
aa(lp7383
F0.0
aF0.0
aa(lp7384
F0.0
aF0.0
aaaa(lp7385
g7375
a(lp7386
(lp7387
F847.0
aF441.0
aa(lp7388
F0.0
aF0.0
aa(lp7389
F0.0
aF0.0
aa(lp7390
F0.0
aF0.0
aaaa(lp7391
(lp7392
(lp7393
F359.0
aF441.0
aa(lp7394
F0.0
aF0.0
aa(lp7395
F0.0
aF0.0
aa(lp7396
F0.0
aF0.0
aaag7386
aa(lp7397
g7392
a(lp7398
(lp7399
F863.0
aF442.0
aa(lp7400
F0.0
aF0.0
aa(lp7401
F0.0
aF0.0
aa(lp7402
F0.0
aF0.0
aaaa(lp7403
(lp7404
(lp7405
F373.0
aF446.0
aa(lp7406
F0.0
aF0.0
aa(lp7407
F0.0
aF0.0
aa(lp7408
F0.0
aF0.0
aaag7398
aa(lp7409
(lp7410
(lp7411
F379.0
aF447.0
aa(lp7412
F0.0
aF0.0
aa(lp7413
F0.0
aF0.0
aa(lp7414
F0.0
aF0.0
aaa(lp7415
(lp7416
F879.0
aF448.0
aa(lp7417
F0.0
aF0.0
aa(lp7418
F0.0
aF0.0
aa(lp7419
F0.0
aF0.0
aaaa(lp7420
(lp7421
(lp7422
F385.0
aF449.0
aa(lp7423
F0.0
aF0.0
aa(lp7424
F0.0
aF0.0
aa(lp7425
F0.0
aF0.0
aaag7415
aa(lp7426
(lp7427
(lp7428
F392.0
aF453.0
aa(lp7429
F0.0
aF0.0
aa(lp7430
F0.0
aF0.0
aa(lp7431
F0.0
aF0.0
aaa(lp7432
(lp7433
F886.0
aF451.0
aa(lp7434
F0.0
aF0.0
aa(lp7435
F0.0
aF0.0
aa(lp7436
F0.0
aF0.0
aaaa(lp7437
g7427
a(lp7438
(lp7439
F890.0
aF455.0
aa(lp7440
F0.0
aF0.0
aa(lp7441
F0.0
aF0.0
aa(lp7442
F0.0
aF0.0
aaaa(lp7443
(lp7444
(lp7445
F403.0
aF459.0
aa(lp7446
F0.0
aF0.0
aa(lp7447
F0.0
aF0.0
aa(lp7448
F0.0
aF0.0
aaag7438
aa(lp7449
g7444
a(lp7450
(lp7451
F903.0
aF465.0
aa(lp7452
F0.0
aF0.0
aa(lp7453
F0.0
aF0.0
aa(lp7454
F0.0
aF0.0
aaaa(lp7455
(lp7456
(lp7457
F409.0
aF466.0
aa(lp7458
F0.0
aF0.0
aa(lp7459
F0.0
aF0.0
aa(lp7460
F0.0
aF0.0
aaag7450
aa(lp7461
(lp7462
(lp7463
F413.0
aF471.0
aa(lp7464
F0.0
aF0.0
aa(lp7465
F0.0
aF0.0
aa(lp7466
F0.0
aF0.0
aaa(lp7467
(lp7468
F904.0
aF468.0
aa(lp7469
F0.0
aF0.0
aa(lp7470
F0.0
aF0.0
aa(lp7471
F0.0
aF0.0
aaaa(lp7472
g7462
ag7467
aa(lp7473
(lp7474
(lp7475
F416.0
aF477.0
aa(lp7476
F0.0
aF0.0
aa(lp7477
F0.0
aF0.0
aa(lp7478
F0.0
aF0.0
aaag7467
aa(lp7479
g7474
a(lp7480
(lp7481
F904.0
aF475.0
aa(lp7482
F0.0
aF0.0
aa(lp7483
F0.0
aF0.0
aa(lp7484
F0.0
aF0.0
aaaa(lp7485
(lp7486
(lp7487
F415.0
aF482.0
aa(lp7488
F0.0
aF0.0
aa(lp7489
F0.0
aF0.0
aa(lp7490
F0.0
aF0.0
aaa(lp7491
(lp7492
F904.0
aF482.0
aa(lp7493
F0.0
aF0.0
aa(lp7494
F0.0
aF0.0
aa(lp7495
F0.0
aF0.0
aaaa(lp7496
(lp7497
(lp7498
F414.0
aF485.0
aa(lp7499
F0.0
aF0.0
aa(lp7500
F0.0
aF0.0
aa(lp7501
F0.0
aF0.0
aaa(lp7502
(lp7503
F904.0
aF483.0
aa(lp7504
F0.0
aF0.0
aa(lp7505
F0.0
aF0.0
aa(lp7506
F0.0
aF0.0
aaaa(lp7507
(lp7508
(lp7509
F411.0
aF487.0
aa(lp7510
F0.0
aF0.0
aa(lp7511
F0.0
aF0.0
aa(lp7512
F0.0
aF0.0
aaa(lp7513
(lp7514
F902.0
aF485.0
aa(lp7515
F0.0
aF0.0
aa(lp7516
F0.0
aF0.0
aa(lp7517
F0.0
aF0.0
aaaa(lp7518
(lp7519
(lp7520
F409.0
aF488.0
aa(lp7521
F0.0
aF0.0
aa(lp7522
F0.0
aF0.0
aa(lp7523
F0.0
aF0.0
aaag7513
aa(lp7524
g7519
a(lp7525
(lp7526
F891.0
aF489.0
aa(lp7527
F0.0
aF0.0
aa(lp7528
F0.0
aF0.0
aa(lp7529
F0.0
aF0.0
aaaa(lp7530
(lp7531
(lp7532
F402.0
aF490.0
aa(lp7533
F0.0
aF0.0
aa(lp7534
F0.0
aF0.0
aa(lp7535
F0.0
aF0.0
aaag7525
aa(lp7536
g7531
a(lp7537
(lp7538
F881.0
aF491.0
aa(lp7539
F0.0
aF0.0
aa(lp7540
F0.0
aF0.0
aa(lp7541
F0.0
aF0.0
aaaa(lp7542
(lp7543
(lp7544
F392.0
aF492.0
aa(lp7545
F0.0
aF0.0
aa(lp7546
F0.0
aF0.0
aa(lp7547
F0.0
aF0.0
aaag7537
aa(lp7548
(lp7549
(lp7550
F385.0
aF491.0
aa(lp7551
F0.0
aF0.0
aa(lp7552
F0.0
aF0.0
aa(lp7553
F0.0
aF0.0
aaa(lp7554
(lp7555
F878.0
aF491.0
aa(lp7556
F0.0
aF0.0
aa(lp7557
F0.0
aF0.0
aa(lp7558
F0.0
aF0.0
aaaa(lp7559
(lp7560
(lp7561
F381.0
aF490.0
aa(lp7562
F0.0
aF0.0
aa(lp7563
F0.0
aF0.0
aa(lp7564
F0.0
aF0.0
aaa(lp7565
(lp7566
F872.0
aF491.0
aa(lp7567
F0.0
aF0.0
aa(lp7568
F0.0
aF0.0
aa(lp7569
F0.0
aF0.0
aaaa(lp7570
(lp7571
(lp7572
F374.0
aF489.0
aa(lp7573
F0.0
aF0.0
aa(lp7574
F0.0
aF0.0
aa(lp7575
F0.0
aF0.0
aaag7565
aa(lp7576
g7571
a(lp7577
(lp7578
F850.0
aF487.0
aa(lp7579
F0.0
aF0.0
aa(lp7580
F0.0
aF0.0
aa(lp7581
F0.0
aF0.0
aaaa(lp7582
(lp7583
(lp7584
F360.0
aF485.0
aa(lp7585
F0.0
aF0.0
aa(lp7586
F0.0
aF0.0
aa(lp7587
F0.0
aF0.0
aaag7577
aa(lp7588
(lp7589
(lp7590
F352.0
aF482.0
aa(lp7591
F0.0
aF0.0
aa(lp7592
F0.0
aF0.0
aa(lp7593
F0.0
aF0.0
aaa(lp7594
(lp7595
F837.0
aF480.0
aa(lp7596
F0.0
aF0.0
aa(lp7597
F0.0
aF0.0
aa(lp7598
F0.0
aF0.0
aaaa(lp7599
(lp7600
(lp7601
F345.0
aF479.0
aa(lp7602
F0.0
aF0.0
aa(lp7603
F0.0
aF0.0
aa(lp7604
F0.0
aF0.0
aaag7594
aa(lp7605
(lp7606
(lp7607
F337.0
aF476.0
aa(lp7608
F0.0
aF0.0
aa(lp7609
F0.0
aF0.0
aa(lp7610
F0.0
aF0.0
aaa(lp7611
(lp7612
F830.0
aF478.0
aa(lp7613
F0.0
aF0.0
aa(lp7614
F0.0
aF0.0
aa(lp7615
F0.0
aF0.0
aaaa(lp7616
g7606
a(lp7617
(lp7618
F815.0
aF470.0
aa(lp7619
F0.0
aF0.0
aa(lp7620
F0.0
aF0.0
aa(lp7621
F0.0
aF0.0
aaaa(lp7622
(lp7623
(lp7624
F323.0
aF468.0
aa(lp7625
F0.0
aF0.0
aa(lp7626
F0.0
aF0.0
aa(lp7627
F0.0
aF0.0
aaag7617
aa(lp7628
g7623
a(lp7629
(lp7630
F800.0
aF460.0
aa(lp7631
F0.0
aF0.0
aa(lp7632
F0.0
aF0.0
aa(lp7633
F0.0
aF0.0
aaaa(lp7634
(lp7635
(lp7636
F311.0
aF459.0
aa(lp7637
F0.0
aF0.0
aa(lp7638
F0.0
aF0.0
aa(lp7639
F0.0
aF0.0
aaag7629
aa(lp7640
(lp7641
(lp7642
F304.0
aF454.0
aa(lp7643
F0.0
aF0.0
aa(lp7644
F0.0
aF0.0
aa(lp7645
F0.0
aF0.0
aaa(lp7646
(lp7647
F787.0
aF449.0
aa(lp7648
F0.0
aF0.0
aa(lp7649
F0.0
aF0.0
aa(lp7650
F0.0
aF0.0
aaaa(lp7651
(lp7652
(lp7653
F298.0
aF448.0
aa(lp7654
F0.0
aF0.0
aa(lp7655
F0.0
aF0.0
aa(lp7656
F0.0
aF0.0
aaag7646
aa(lp7657
(lp7658
(lp7659
F295.0
aF444.0
aa(lp7660
F0.0
aF0.0
aa(lp7661
F0.0
aF0.0
aa(lp7662
F0.0
aF0.0
aaa(lp7663
(lp7664
F783.0
aF444.0
aa(lp7665
F0.0
aF0.0
aa(lp7666
F0.0
aF0.0
aa(lp7667
F0.0
aF0.0
aaaa(lp7668
g7658
a(lp7669
(lp7670
F778.0
aF440.0
aa(lp7671
F0.0
aF0.0
aa(lp7672
F0.0
aF0.0
aa(lp7673
F0.0
aF0.0
aaaa(lp7674
(lp7675
(lp7676
F285.0
aF433.0
aa(lp7677
F0.0
aF0.0
aa(lp7678
F0.0
aF0.0
aa(lp7679
F0.0
aF0.0
aaag7669
aa(lp7680
g7675
a(lp7681
(lp7682
F769.0
aF429.0
aa(lp7683
F0.0
aF0.0
aa(lp7684
F0.0
aF0.0
aa(lp7685
F0.0
aF0.0
aaaa(lp7686
(lp7687
(lp7688
F277.0
aF423.0
aa(lp7689
F0.0
aF0.0
aa(lp7690
F0.0
aF0.0
aa(lp7691
F0.0
aF0.0
aaa(lp7692
(lp7693
F769.0
aF429.0
aa(lp7694
F0.0
aF0.0
aa(lp7695
F0.0
aF0.0
aa(lp7696
F0.0
aF0.0
aaaa(lp7697
(lp7698
(lp7699
F272.0
aF416.0
aa(lp7700
F0.0
aF0.0
aa(lp7701
F0.0
aF0.0
aa(lp7702
F0.0
aF0.0
aaa(lp7703
(lp7704
F761.0
aF412.0
aa(lp7705
F0.0
aF0.0
aa(lp7706
F0.0
aF0.0
aa(lp7707
F0.0
aF0.0
aaaa(lp7708
(lp7709
(lp7710
F271.0
aF411.0
aa(lp7711
F0.0
aF0.0
aa(lp7712
F0.0
aF0.0
aa(lp7713
F0.0
aF0.0
aaag7703
aa(lp7714
(lp7715
(lp7716
F270.0
aF406.0
aa(lp7717
F0.0
aF0.0
aa(lp7718
F0.0
aF0.0
aa(lp7719
F0.0
aF0.0
aaag7703
aa(lp7720
g7715
a(lp7721
(lp7722
F760.0
aF396.0
aa(lp7723
F0.0
aF0.0
aa(lp7724
F0.0
aF0.0
aa(lp7725
F0.0
aF0.0
aaaa(lp7726
(lp7727
(lp7728
F268.0
aF396.0
aa(lp7729
F0.0
aF0.0
aa(lp7730
F0.0
aF0.0
aa(lp7731
F0.0
aF0.0
aaag7721
aa(lp7732
(lp7733
(lp7734
F270.0
aF390.0
aa(lp7735
F0.0
aF0.0
aa(lp7736
F0.0
aF0.0
aa(lp7737
F0.0
aF0.0
aaa(lp7738
(lp7739
F766.0
aF388.0
aa(lp7740
F0.0
aF0.0
aa(lp7741
F0.0
aF0.0
aa(lp7742
F0.0
aF0.0
aaaa(lp7743
(lp7744
(lp7745
F271.0
aF385.0
aa(lp7746
F0.0
aF0.0
aa(lp7747
F0.0
aF0.0
aa(lp7748
F0.0
aF0.0
aaag7738
aa(lp7749
(lp7750
(lp7751
F272.0
aF382.0
aa(lp7752
F0.0
aF0.0
aa(lp7753
F0.0
aF0.0
aa(lp7754
F0.0
aF0.0
aaag7738
aa(lp7755
g7750
a(lp7756
(lp7757
F769.0
aF380.0
aa(lp7758
F0.0
aF0.0
aa(lp7759
F0.0
aF0.0
aa(lp7760
F0.0
aF0.0
aaaa(lp7761
(lp7762
(lp7763
F280.0
aF375.0
aa(lp7764
F0.0
aF0.0
aa(lp7765
F0.0
aF0.0
aa(lp7766
F0.0
aF0.0
aaag7756
aa(lp7767
g7762
a(lp7768
(lp7769
F784.0
aF371.0
aa(lp7770
F0.0
aF0.0
aa(lp7771
F0.0
aF0.0
aa(lp7772
F0.0
aF0.0
aaaa(lp7773
(lp7774
(lp7775
F288.0
aF370.0
aa(lp7776
F0.0
aF0.0
aa(lp7777
F0.0
aF0.0
aa(lp7778
F0.0
aF0.0
aaag7768
aa(lp7779
(lp7780
(lp7781
F295.0
aF368.0
aa(lp7782
F0.0
aF0.0
aa(lp7783
F0.0
aF0.0
aa(lp7784
F0.0
aF0.0
aaa(lp7785
(lp7786
F790.0
aF368.0
aa(lp7787
F0.0
aF0.0
aa(lp7788
F0.0
aF0.0
aa(lp7789
F0.0
aF0.0
aaaa(lp7790
(lp7791
(lp7792
F301.0
aF367.0
aa(lp7793
F0.0
aF0.0
aa(lp7794
F0.0
aF0.0
aa(lp7795
F0.0
aF0.0
aaa(lp7796
(lp7797
F796.0
aF368.0
aa(lp7798
F0.0
aF0.0
aa(lp7799
F0.0
aF0.0
aa(lp7800
F0.0
aF0.0
aaaa(lp7801
(lp7802
(lp7803
F307.0
aF367.0
aa(lp7804
F0.0
aF0.0
aa(lp7805
F0.0
aF0.0
aa(lp7806
F0.0
aF0.0
aaag7796
aa(lp7807
g7802
a(lp7808
(lp7809
F809.0
aF365.0
aa(lp7810
F0.0
aF0.0
aa(lp7811
F0.0
aF0.0
aa(lp7812
F0.0
aF0.0
aaaa(lp7813
(lp7814
(lp7815
F321.0
aF366.0
aa(lp7816
F0.0
aF0.0
aa(lp7817
F0.0
aF0.0
aa(lp7818
F0.0
aF0.0
aaa(lp7819
(lp7820
F816.0
aF364.0
aa(lp7821
F0.0
aF0.0
aa(lp7822
F0.0
aF0.0
aa(lp7823
F0.0
aF0.0
aaaa(lp7824
g7814
a(lp7825
(lp7826
F824.0
aF364.0
aa(lp7827
F0.0
aF0.0
aa(lp7828
F0.0
aF0.0
aa(lp7829
F0.0
aF0.0
aaaa(lp7830
(lp7831
(lp7832
F337.0
aF367.0
aa(lp7833
F0.0
aF0.0
aa(lp7834
F0.0
aF0.0
aa(lp7835
F0.0
aF0.0
aaa(lp7836
(lp7837
F832.0
aF364.0
aa(lp7838
F0.0
aF0.0
aa(lp7839
F0.0
aF0.0
aa(lp7840
F0.0
aF0.0
aaaa(lp7841
(lp7842
(lp7843
F344.0
aF368.0
aa(lp7844
F0.0
aF0.0
aa(lp7845
F0.0
aF0.0
aa(lp7846
F0.0
aF0.0
aaa(lp7847
(lp7848
F846.0
aF366.0
aa(lp7849
F0.0
aF0.0
aa(lp7850
F0.0
aF0.0
aa(lp7851
F0.0
aF0.0
aaaa(lp7852
g7842
a(lp7853
(lp7854
F855.0
aF369.0
aa(lp7855
F0.0
aF0.0
aa(lp7856
F0.0
aF0.0
aa(lp7857
F0.0
aF0.0
aaaa(lp7858
(lp7859
(lp7860
F362.0
aF374.0
aa(lp7861
F0.0
aF0.0
aa(lp7862
F0.0
aF0.0
aa(lp7863
F0.0
aF0.0
aaag7853
aa(lp7864
g7859
a(lp7865
(lp7866
F872.0
aF372.0
aa(lp7867
F0.0
aF0.0
aa(lp7868
F0.0
aF0.0
aa(lp7869
F0.0
aF0.0
aaaa(lp7870
(lp7871
(lp7872
F379.0
aF380.0
aa(lp7873
F0.0
aF0.0
aa(lp7874
F0.0
aF0.0
aa(lp7875
F0.0
aF0.0
aaag7865
aa(lp7876
g7871
a(lp7877
(lp7878
F888.0
aF380.0
aa(lp7879
F0.0
aF0.0
aa(lp7880
F0.0
aF0.0
aa(lp7881
F0.0
aF0.0
aaaa(lp7882
(lp7883
(lp7884
F397.0
aF389.0
aa(lp7885
F0.0
aF0.0
aa(lp7886
F0.0
aF0.0
aa(lp7887
F0.0
aF0.0
aaa(lp7888
(lp7889
F896.0
aF385.0
aa(lp7890
F0.0
aF0.0
aa(lp7891
F0.0
aF0.0
aa(lp7892
F0.0
aF0.0
aaaa(lp7893
g7883
a(lp7894
(lp7895
F904.0
aF388.0
aa(lp7896
F0.0
aF0.0
aa(lp7897
F0.0
aF0.0
aa(lp7898
F0.0
aF0.0
aaaa(lp7899
(lp7900
(lp7901
F413.0
aF400.0
aa(lp7902
F0.0
aF0.0
aa(lp7903
F0.0
aF0.0
aa(lp7904
F0.0
aF0.0
aaa(lp7905
(lp7906
F911.0
aF394.0
aa(lp7907
F0.0
aF0.0
aa(lp7908
F0.0
aF0.0
aa(lp7909
F0.0
aF0.0
aaaa(lp7910
(lp7911
(lp7912
F416.0
aF404.0
aa(lp7913
F0.0
aF0.0
aa(lp7914
F0.0
aF0.0
aa(lp7915
F0.0
aF0.0
aaag7905
aa(lp7916
g7911
a(lp7917
(lp7918
F920.0
aF403.0
aa(lp7919
F0.0
aF0.0
aa(lp7920
F0.0
aF0.0
aa(lp7921
F0.0
aF0.0
aaaa(lp7922
(lp7923
(lp7924
F423.0
aF412.0
aa(lp7925
F0.0
aF0.0
aa(lp7926
F0.0
aF0.0
aa(lp7927
F0.0
aF0.0
aaag7917
aa(lp7928
g7923
a(lp7929
(lp7930
F921.0
aF410.0
aa(lp7931
F0.0
aF0.0
aa(lp7932
F0.0
aF0.0
aa(lp7933
F0.0
aF0.0
aaaa(lp7934
(lp7935
(lp7936
F424.0
aF419.0
aa(lp7937
F0.0
aF0.0
aa(lp7938
F0.0
aF0.0
aa(lp7939
F0.0
aF0.0
aaa(lp7940
(lp7941
F921.0
aF414.0
aa(lp7942
F0.0
aF0.0
aa(lp7943
F0.0
aF0.0
aa(lp7944
F0.0
aF0.0
aaaa(lp7945
(lp7946
(lp7947
F423.0
aF422.0
aa(lp7948
F0.0
aF0.0
aa(lp7949
F0.0
aF0.0
aa(lp7950
F0.0
aF0.0
aaa(lp7951
(lp7952
F920.0
aF417.0
aa(lp7953
F0.0
aF0.0
aa(lp7954
F0.0
aF0.0
aa(lp7955
F0.0
aF0.0
aaaa(lp7956
g7946
a(lp7957
(lp7958
F920.0
aF420.0
aa(lp7959
F0.0
aF0.0
aa(lp7960
F0.0
aF0.0
aa(lp7961
F0.0
aF0.0
aaaa(lp7962
(lp7963
(lp7964
F418.0
aF425.0
aa(lp7965
F0.0
aF0.0
aa(lp7966
F0.0
aF0.0
aa(lp7967
F0.0
aF0.0
aaag7957
aa(lp7968
g7963
a(lp7969
(lp7970
F913.0
aF424.0
aa(lp7971
F0.0
aF0.0
aa(lp7972
F0.0
aF0.0
aa(lp7973
F0.0
aF0.0
aaaa(lp7974
(lp7975
(lp7976
F410.0
aF430.0
aa(lp7977
F0.0
aF0.0
aa(lp7978
F0.0
aF0.0
aa(lp7979
F0.0
aF0.0
aaag7969
aa(lp7980
g7975
a(lp7981
(lp7982
F904.0
aF427.0
aa(lp7983
F0.0
aF0.0
aa(lp7984
F0.0
aF0.0
aa(lp7985
F0.0
aF0.0
aaaa(lp7986
(lp7987
(lp7988
F400.0
aF430.0
aa(lp7989
F0.0
aF0.0
aa(lp7990
F0.0
aF0.0
aa(lp7991
F0.0
aF0.0
aaa(lp7992
(lp7993
F900.0
aF427.0
aa(lp7994
F0.0
aF0.0
aa(lp7995
F0.0
aF0.0
aa(lp7996
F0.0
aF0.0
aaaa(lp7997
(lp7998
(lp7999
F394.0
aF431.0
aa(lp8000
F0.0
aF0.0
aa(lp8001
F0.0
aF0.0
aa(lp8002
F0.0
aF0.0
aaag7992
aa(lp8003
g7998
a(lp8004
(lp8005
F888.0
aF427.0
aa(lp8006
F0.0
aF0.0
aa(lp8007
F0.0
aF0.0
aa(lp8008
F0.0
aF0.0
aaaa(lp8009
(lp8010
(lp8011
F379.0
aF428.0
aa(lp8012
F0.0
aF0.0
aa(lp8013
F0.0
aF0.0
aa(lp8014
F0.0
aF0.0
aaag8004
aa(lp8015
g8010
a(lp8016
(lp8017
F871.0
aF425.0
aa(lp8018
F0.0
aF0.0
aa(lp8019
F0.0
aF0.0
aa(lp8020
F0.0
aF0.0
aaaa(lp8021
(lp8022
(lp8023
F361.0
aF423.0
aa(lp8024
F0.0
aF0.0
aa(lp8025
F0.0
aF0.0
aa(lp8026
F0.0
aF0.0
aaa(lp8027
(lp8028
F861.0
aF423.0
aa(lp8029
F0.0
aF0.0
aa(lp8030
F0.0
aF0.0
aa(lp8031
F0.0
aF0.0
aaaa(lp8032
g8022
a(lp8033
(lp8034
F848.0
aF419.0
aa(lp8035
F0.0
aF0.0
aa(lp8036
F0.0
aF0.0
aa(lp8037
F0.0
aF0.0
aaaa(lp8038
g8022
a(lp8039
(lp8040
F838.0
aF416.0
aa(lp8041
F0.0
aF0.0
aa(lp8042
F0.0
aF0.0
aa(lp8043
F0.0
aF0.0
aaaa(lp8044
(lp8045
(lp8046
F334.0
aF414.0
aa(lp8047
F0.0
aF0.0
aa(lp8048
F0.0
aF0.0
aa(lp8049
F0.0
aF0.0
aaag8039
aa(lp8050
g8045
a(lp8051
(lp8052
F819.0
aF408.0
aa(lp8053
F0.0
aF0.0
aa(lp8054
F0.0
aF0.0
aa(lp8055
F0.0
aF0.0
aaaa(lp8056
(lp8057
(lp8058
F315.0
aF405.0
aa(lp8059
F0.0
aF0.0
aa(lp8060
F0.0
aF0.0
aa(lp8061
F0.0
aF0.0
aaag8051
aa(lp8062
g8057
a(lp8063
(lp8064
F801.0
aF399.0
aa(lp8065
F0.0
aF0.0
aa(lp8066
F0.0
aF0.0
aa(lp8067
F0.0
aF0.0
aaaa(lp8068
g8057
a(lp8069
(lp8070
F792.0
aF394.0
aa(lp8071
F0.0
aF0.0
aa(lp8072
F0.0
aF0.0
aa(lp8073
F0.0
aF0.0
aaaa(lp8074
(lp8075
(lp8076
F287.0
aF387.0
aa(lp8077
F0.0
aF0.0
aa(lp8078
F0.0
aF0.0
aa(lp8079
F0.0
aF0.0
aaag8069
aa(lp8080
g8075
a(lp8081
(lp8082
F780.0
aF384.0
aa(lp8083
F0.0
aF0.0
aa(lp8084
F0.0
aF0.0
aa(lp8085
F0.0
aF0.0
aaaa(lp8086
(lp8087
(lp8088
F276.0
aF376.0
aa(lp8089
F0.0
aF0.0
aa(lp8090
F0.0
aF0.0
aa(lp8091
F0.0
aF0.0
aaag8081
aa(lp8092
g8087
a(lp8093
(lp8094
F769.0
aF374.0
aa(lp8095
F0.0
aF0.0
aa(lp8096
F0.0
aF0.0
aa(lp8097
F0.0
aF0.0
aaaa(lp8098
(lp8099
(lp8100
F272.0
aF371.0
aa(lp8101
F0.0
aF0.0
aa(lp8102
F0.0
aF0.0
aa(lp8103
F0.0
aF0.0
aaag8093
aa(lp8104
(lp8105
(lp8106
F269.0
aF366.0
aa(lp8107
F0.0
aF0.0
aa(lp8108
F0.0
aF0.0
aa(lp8109
F0.0
aF0.0
aaa(lp8110
(lp8111
F769.0
aF374.0
aa(lp8112
F0.0
aF0.0
aa(lp8113
F0.0
aF0.0
aa(lp8114
F0.0
aF0.0
aaaa(lp8115
g8105
a(lp8116
(lp8117
F765.0
aF359.0
aa(lp8118
F0.0
aF0.0
aa(lp8119
F0.0
aF0.0
aa(lp8120
F0.0
aF0.0
aaaa(lp8121
(lp8122
(lp8123
F265.0
aF356.0
aa(lp8124
F0.0
aF0.0
aa(lp8125
F0.0
aF0.0
aa(lp8126
F0.0
aF0.0
aaag8116
aa(lp8127
(lp8128
(lp8129
F265.0
aF351.0
aa(lp8130
F0.0
aF0.0
aa(lp8131
F0.0
aF0.0
aa(lp8132
F0.0
aF0.0
aaa(lp8133
(lp8134
F766.0
aF349.0
aa(lp8135
F0.0
aF0.0
aa(lp8136
F0.0
aF0.0
aa(lp8137
F0.0
aF0.0
aaaa(lp8138
(lp8139
(lp8140
F264.0
aF346.0
aa(lp8141
F0.0
aF0.0
aa(lp8142
F0.0
aF0.0
aa(lp8143
F0.0
aF0.0
aaag8133
aa(lp8144
(lp8145
(lp8146
F265.0
aF342.0
aa(lp8147
F0.0
aF0.0
aa(lp8148
F0.0
aF0.0
aa(lp8149
F0.0
aF0.0
aaa(lp8150
(lp8151
F765.0
aF344.0
aa(lp8152
F0.0
aF0.0
aa(lp8153
F0.0
aF0.0
aa(lp8154
F0.0
aF0.0
aaaa(lp8155
(lp8156
(lp8157
F265.0
aF336.0
aa(lp8158
F0.0
aF0.0
aa(lp8159
F0.0
aF0.0
aa(lp8160
F0.0
aF0.0
aaag8150
aa(lp8161
(lp8162
(lp8163
F266.0
aF333.0
aa(lp8164
F0.0
aF0.0
aa(lp8165
F0.0
aF0.0
aa(lp8166
F0.0
aF0.0
aaag8150
aa(lp8167
g8162
a(lp8168
(lp8169
F771.0
aF327.0
aa(lp8170
F0.0
aF0.0
aa(lp8171
F0.0
aF0.0
aa(lp8172
F0.0
aF0.0
aaaa(lp8173
(lp8174
(lp8175
F271.0
aF325.0
aa(lp8176
F0.0
aF0.0
aa(lp8177
F0.0
aF0.0
aa(lp8178
F0.0
aF0.0
aaag8168
aa(lp8179
(lp8180
(lp8181
F272.0
aF321.0
aa(lp8182
F0.0
aF0.0
aa(lp8183
F0.0
aF0.0
aa(lp8184
F0.0
aF0.0
aaa(lp8185
(lp8186
F776.0
aF318.0
aa(lp8187
F0.0
aF0.0
aa(lp8188
F0.0
aF0.0
aa(lp8189
F0.0
aF0.0
aaaa(lp8190
(lp8191
(lp8192
F274.0
aF319.0
aa(lp8193
F0.0
aF0.0
aa(lp8194
F0.0
aF0.0
aa(lp8195
F0.0
aF0.0
aaag8185
aa(lp8196
(lp8197
(lp8198
F279.0
aF316.0
aa(lp8199
F0.0
aF0.0
aa(lp8200
F0.0
aF0.0
aa(lp8201
F0.0
aF0.0
aaa(lp8202
(lp8203
F783.0
aF314.0
aa(lp8204
F0.0
aF0.0
aa(lp8205
F0.0
aF0.0
aa(lp8206
F0.0
aF0.0
aaaa(lp8207
(lp8208
(lp8209
F280.0
aF313.0
aa(lp8210
F0.0
aF0.0
aa(lp8211
F0.0
aF0.0
aa(lp8212
F0.0
aF0.0
aaag8202
aa(lp8213
(lp8214
(lp8215
F284.0
aF311.0
aa(lp8216
F0.0
aF0.0
aa(lp8217
F0.0
aF0.0
aa(lp8218
F0.0
aF0.0
aaag8202
aa(lp8219
g8214
a(lp8220
(lp8221
F795.0
aF306.0
aa(lp8222
F0.0
aF0.0
aa(lp8223
F0.0
aF0.0
aa(lp8224
F0.0
aF0.0
aaaa(lp8225
(lp8226
(lp8227
F294.0
aF307.0
aa(lp8228
F0.0
aF0.0
aa(lp8229
F0.0
aF0.0
aa(lp8230
F0.0
aF0.0
aaag8220
aa(lp8231
g8226
a(lp8232
(lp8233
F802.0
aF304.0
aa(lp8234
F0.0
aF0.0
aa(lp8235
F0.0
aF0.0
aa(lp8236
F0.0
aF0.0
aaaa(lp8237
(lp8238
(lp8239
F296.0
aF306.0
aa(lp8240
F0.0
aF0.0
aa(lp8241
F0.0
aF0.0
aa(lp8242
F0.0
aF0.0
aaag8232
aa(lp8243
(lp8244
(lp8245
F301.0
aF304.0
aa(lp8246
F0.0
aF0.0
aa(lp8247
F0.0
aF0.0
aa(lp8248
F0.0
aF0.0
aaa(lp8249
(lp8250
F807.0
aF301.0
aa(lp8251
F0.0
aF0.0
aa(lp8252
F0.0
aF0.0
aa(lp8253
F0.0
aF0.0
aaaa(lp8254
(lp8255
(lp8256
F303.0
aF304.0
aa(lp8257
F0.0
aF0.0
aa(lp8258
F0.0
aF0.0
aa(lp8259
F0.0
aF0.0
aaag8249
aa(lp8260
(lp8261
(lp8262
F304.0
aF303.0
aa(lp8263
F0.0
aF0.0
aa(lp8264
F0.0
aF0.0
aa(lp8265
F0.0
aF0.0
aaa(lp8266
(lp8267
F809.0
aF301.0
aa(lp8268
F0.0
aF0.0
aa(lp8269
F0.0
aF0.0
aa(lp8270
F0.0
aF0.0
aaaa(lp8271
g8261
a(lp8272
(lp8273
F813.0
aF302.0
aa(lp8274
F0.0
aF0.0
aa(lp8275
F0.0
aF0.0
aa(lp8276
F0.0
aF0.0
aaaa.