(lp0
(lp1
(lp2
(lp3
F136.0
aF411.0
aa(lp4
F0.0
aF0.0
aa(lp5
F0.0
aF0.0
aa(lp6
F0.0
aF0.0
aaa(lp7
(lp8
F733.0
aF410.0
aa(lp9
F0.0
aF0.0
aa(lp10
F0.0
aF0.0
aa(lp11
F0.0
aF0.0
aaaa(lp12
(lp13
(lp14
F136.0
aF411.0
aa(lp15
F0.0
aF0.0
aa(lp16
F0.0
aF0.0
aa(lp17
F0.0
aF0.0
aaa(lp18
(lp19
F732.0
aF410.0
aa(lp20
F0.0
aF0.0
aa(lp21
F0.0
aF0.0
aa(lp22
F0.0
aF0.0
aaaa(lp23
(lp24
(lp25
F136.0
aF411.0
aa(lp26
F0.0
aF0.0
aa(lp27
F0.0
aF0.0
aa(lp28
F0.0
aF0.0
aaa(lp29
(lp30
F732.0
aF410.0
aa(lp31
F0.0
aF0.0
aa(lp32
F0.0
aF0.0
aa(lp33
F0.0
aF0.0
aaaa(lp34
(lp35
(lp36
F136.0
aF411.0
aa(lp37
F0.0
aF0.0
aa(lp38
F0.0
aF0.0
aa(lp39
F0.0
aF0.0
aaa(lp40
(lp41
F732.0
aF411.0
aa(lp42
F0.0
aF0.0
aa(lp43
F0.0
aF0.0
aa(lp44
F0.0
aF0.0
aaaa(lp45
(lp46
(lp47
F136.0
aF411.0
aa(lp48
F0.0
aF0.0
aa(lp49
F0.0
aF0.0
aa(lp50
F0.0
aF0.0
aaa(lp51
(lp52
F732.0
aF411.0
aa(lp53
F0.0
aF0.0
aa(lp54
F0.0
aF0.0
aa(lp55
F0.0
aF0.0
aaaa(lp56
g46
a(lp57
(lp58
F732.0
aF411.0
aa(lp59
F0.0
aF0.0
aa(lp60
F0.0
aF0.0
aa(lp61
F0.0
aF0.0
aaaa(lp62
(lp63
(lp64
F136.0
aF411.0
aa(lp65
F0.0
aF0.0
aa(lp66
F0.0
aF0.0
aa(lp67
F0.0
aF0.0
aaa(lp68
(lp69
F732.0
aF411.0
aa(lp70
F0.0
aF0.0
aa(lp71
F0.0
aF0.0
aa(lp72
F0.0
aF0.0
aaaa(lp73
(lp74
(lp75
F136.0
aF411.0
aa(lp76
F0.0
aF0.0
aa(lp77
F0.0
aF0.0
aa(lp78
F0.0
aF0.0
aaa(lp79
(lp80
F732.0
aF411.0
aa(lp81
F0.0
aF0.0
aa(lp82
F0.0
aF0.0
aa(lp83
F0.0
aF0.0
aaaa(lp84
(lp85
(lp86
F136.0
aF411.0
aa(lp87
F0.0
aF0.0
aa(lp88
F0.0
aF0.0
aa(lp89
F0.0
aF0.0
aaa(lp90
(lp91
F732.0
aF411.0
aa(lp92
F0.0
aF0.0
aa(lp93
F0.0
aF0.0
aa(lp94
F0.0
aF0.0
aaaa(lp95
(lp96
(lp97
F136.0
aF411.0
aa(lp98
F0.0
aF0.0
aa(lp99
F0.0
aF0.0
aa(lp100
F0.0
aF0.0
aaa(lp101
(lp102
F732.0
aF411.0
aa(lp103
F0.0
aF0.0
aa(lp104
F0.0
aF0.0
aa(lp105
F0.0
aF0.0
aaaa(lp106
(lp107
(lp108
F136.0
aF411.0
aa(lp109
F0.0
aF0.0
aa(lp110
F0.0
aF0.0
aa(lp111
F0.0
aF0.0
aaa(lp112
(lp113
F732.0
aF411.0
aa(lp114
F0.0
aF0.0
aa(lp115
F0.0
aF0.0
aa(lp116
F0.0
aF0.0
aaaa(lp117
(lp118
(lp119
F136.0
aF411.0
aa(lp120
F0.0
aF0.0
aa(lp121
F0.0
aF0.0
aa(lp122
F0.0
aF0.0
aaa(lp123
(lp124
F732.0
aF411.0
aa(lp125
F0.0
aF0.0
aa(lp126
F0.0
aF0.0
aa(lp127
F0.0
aF0.0
aaaa(lp128
(lp129
(lp130
F136.0
aF411.0
aa(lp131
F0.0
aF0.0
aa(lp132
F0.0
aF0.0
aa(lp133
F0.0
aF0.0
aaa(lp134
(lp135
F732.0
aF411.0
aa(lp136
F0.0
aF0.0
aa(lp137
F0.0
aF0.0
aa(lp138
F0.0
aF0.0
aaaa(lp139
(lp140
(lp141
F136.0
aF411.0
aa(lp142
F0.0
aF0.0
aa(lp143
F0.0
aF0.0
aa(lp144
F0.0
aF0.0
aaa(lp145
(lp146
F732.0
aF411.0
aa(lp147
F0.0
aF0.0
aa(lp148
F0.0
aF0.0
aa(lp149
F0.0
aF0.0
aaaa.