(lp0
(lp1
(lp2
(lp3
F164.0
aF412.0
aa(lp4
F0.0
aF0.0
aa(lp5
F0.0
aF0.0
aa(lp6
F0.0
aF0.0
aaa(lp7
(lp8
F762.0
aF412.0
aa(lp9
F0.0
aF0.0
aa(lp10
F0.0
aF0.0
aa(lp11
F0.0
aF0.0
aaaa(lp12
(lp13
(lp14
F164.0
aF412.0
aa(lp15
F0.0
aF0.0
aa(lp16
F0.0
aF0.0
aa(lp17
F0.0
aF0.0
aaag7
aa(lp18
(lp19
(lp20
F164.0
aF412.0
aa(lp21
F0.0
aF0.0
aa(lp22
F0.0
aF0.0
aa(lp23
F0.0
aF0.0
aaa(lp24
(lp25
F762.0
aF412.0
aa(lp26
F0.0
aF0.0
aa(lp27
F0.0
aF0.0
aa(lp28
F0.0
aF0.0
aaaa(lp29
(lp30
(lp31
F164.0
aF412.0
aa(lp32
F0.0
aF0.0
aa(lp33
F0.0
aF0.0
aa(lp34
F0.0
aF0.0
aaa(lp35
(lp36
F762.0
aF412.0
aa(lp37
F0.0
aF0.0
aa(lp38
F0.0
aF0.0
aa(lp39
F0.0
aF0.0
aaaa(lp40
(lp41
(lp42
F164.0
aF412.0
aa(lp43
F0.0
aF0.0
aa(lp44
F0.0
aF0.0
aa(lp45
F0.0
aF0.0
aaa(lp46
(lp47
F762.0
aF412.0
aa(lp48
F0.0
aF0.0
aa(lp49
F0.0
aF0.0
aa(lp50
F0.0
aF0.0
aaaa(lp51
(lp52
(lp53
F164.0
aF412.0
aa(lp54
F0.0
aF0.0
aa(lp55
F0.0
aF0.0
aa(lp56
F0.0
aF0.0
aaa(lp57
(lp58
F762.0
aF412.0
aa(lp59
F0.0
aF0.0
aa(lp60
F0.0
aF0.0
aa(lp61
F0.0
aF0.0
aaaa(lp62
(lp63
(lp64
F164.0
aF412.0
aa(lp65
F0.0
aF0.0
aa(lp66
F0.0
aF0.0
aa(lp67
F0.0
aF0.0
aaa(lp68
(lp69
F762.0
aF412.0
aa(lp70
F0.0
aF0.0
aa(lp71
F0.0
aF0.0
aa(lp72
F0.0
aF0.0
aaaa(lp73
(lp74
(lp75
F164.0
aF412.0
aa(lp76
F0.0
aF0.0
aa(lp77
F0.0
aF0.0
aa(lp78
F0.0
aF0.0
aaa(lp79
(lp80
F762.0
aF412.0
aa(lp81
F0.0
aF0.0
aa(lp82
F0.0
aF0.0
aa(lp83
F0.0
aF0.0
aaaa(lp84
(lp85
(lp86
F164.0
aF412.0
aa(lp87
F0.0
aF0.0
aa(lp88
F0.0
aF0.0
aa(lp89
F0.0
aF0.0
aaa(lp90
(lp91
F762.0
aF412.0
aa(lp92
F0.0
aF0.0
aa(lp93
F0.0
aF0.0
aa(lp94
F0.0
aF0.0
aaaa(lp95
(lp96
(lp97
F164.0
aF412.0
aa(lp98
F0.0
aF0.0
aa(lp99
F0.0
aF0.0
aa(lp100
F0.0
aF0.0
aaa(lp101
(lp102
F762.0
aF412.0
aa(lp103
F0.0
aF0.0
aa(lp104
F0.0
aF0.0
aa(lp105
F0.0
aF0.0
aaaa(lp106
(lp107
(lp108
F164.0
aF412.0
aa(lp109
F0.0
aF0.0
aa(lp110
F0.0
aF0.0
aa(lp111
F0.0
aF0.0
aaa(lp112
(lp113
F762.0
aF412.0
aa(lp114
F0.0
aF0.0
aa(lp115
F0.0
aF0.0
aa(lp116
F0.0
aF0.0
aaaa(lp117
(lp118
(lp119
F164.0
aF412.0
aa(lp120
F0.0
aF0.0
aa(lp121
F0.0
aF0.0
aa(lp122
F0.0
aF0.0
aaa(lp123
(lp124
F762.0
aF412.0
aa(lp125
F0.0
aF0.0
aa(lp126
F0.0
aF0.0
aa(lp127
F0.0
aF0.0
aaaa(lp128
(lp129
(lp130
F164.0
aF412.0
aa(lp131
F0.0
aF0.0
aa(lp132
F0.0
aF0.0
aa(lp133
F0.0
aF0.0
aaa(lp134
(lp135
F762.0
aF412.0
aa(lp136
F0.0
aF0.0
aa(lp137
F0.0
aF0.0
aa(lp138
F0.0
aF0.0
aaaa(lp139
(lp140
(lp141
F164.0
aF412.0
aa(lp142
F0.0
aF0.0
aa(lp143
F0.0
aF0.0
aa(lp144
F0.0
aF0.0
aaa(lp145
(lp146
F761.0
aF412.0
aa(lp147
F0.0
aF0.0
aa(lp148
F0.0
aF0.0
aa(lp149
F0.0
aF0.0
aaaa(lp150
(lp151
(lp152
F164.0
aF412.0
aa(lp153
F0.0
aF0.0
aa(lp154
F0.0
aF0.0
aa(lp155
F0.0
aF0.0
aaa(lp156
(lp157
F761.0
aF412.0
aa(lp158
F0.0
aF0.0
aa(lp159
F0.0
aF0.0
aa(lp160
F0.0
aF0.0
aaaa(lp161
(lp162
(lp163
F164.0
aF412.0
aa(lp164
F0.0
aF0.0
aa(lp165
F0.0
aF0.0
aa(lp166
F0.0
aF0.0
aaa(lp167
(lp168
F761.0
aF412.0
aa(lp169
F0.0
aF0.0
aa(lp170
F0.0
aF0.0
aa(lp171
F0.0
aF0.0
aaaa(lp172
(lp173
(lp174
F164.0
aF412.0
aa(lp175
F0.0
aF0.0
aa(lp176
F0.0
aF0.0
aa(lp177
F0.0
aF0.0
aaa(lp178
(lp179
F761.0
aF412.0
aa(lp180
F0.0
aF0.0
aa(lp181
F0.0
aF0.0
aa(lp182
F0.0
aF0.0
aaaa(lp183
(lp184
(lp185
F164.0
aF412.0
aa(lp186
F0.0
aF0.0
aa(lp187
F0.0
aF0.0
aa(lp188
F0.0
aF0.0
aaa(lp189
(lp190
F761.0
aF412.0
aa(lp191
F0.0
aF0.0
aa(lp192
F0.0
aF0.0
aa(lp193
F0.0
aF0.0
aaaa(lp194
(lp195
(lp196
F164.0
aF412.0
aa(lp197
F0.0
aF0.0
aa(lp198
F0.0
aF0.0
aa(lp199
F0.0
aF0.0
aaa(lp200
(lp201
F761.0
aF412.0
aa(lp202
F0.0
aF0.0
aa(lp203
F0.0
aF0.0
aa(lp204
F0.0
aF0.0
aaaa(lp205
(lp206
(lp207
F163.0
aF412.0
aa(lp208
F0.0
aF0.0
aa(lp209
F0.0
aF0.0
aa(lp210
F0.0
aF0.0
aaa(lp211
(lp212
F761.0
aF412.0
aa(lp213
F0.0
aF0.0
aa(lp214
F0.0
aF0.0
aa(lp215
F0.0
aF0.0
aaaa(lp216
g206
a(lp217
(lp218
F759.0
aF411.0
aa(lp219
F0.0
aF0.0
aa(lp220
F0.0
aF0.0
aa(lp221
F0.0
aF0.0
aaaa(lp222
(lp223
(lp224
F155.0
aF412.0
aa(lp225
F0.0
aF0.0
aa(lp226
F0.0
aF0.0
aa(lp227
F0.0
aF0.0
aaa(lp228
(lp229
F753.0
aF412.0
aa(lp230
F0.0
aF0.0
aa(lp231
F0.0
aF0.0
aa(lp232
F0.0
aF0.0
aaaa(lp233
g223
a(lp234
(lp235
F737.0
aF411.0
aa(lp236
F0.0
aF0.0
aa(lp237
F0.0
aF0.0
aa(lp238
F0.0
aF0.0
aaaa(lp239
(lp240
(lp241
F134.0
aF411.0
aa(lp242
F0.0
aF0.0
aa(lp243
F0.0
aF0.0
aa(lp244
F0.0
aF0.0
aaag234
aa(lp245
(lp246
(lp247
F130.0
aF411.0
aa(lp248
F0.0
aF0.0
aa(lp249
F0.0
aF0.0
aa(lp250
F0.0
aF0.0
aaa(lp251
(lp252
F727.0
aF411.0
aa(lp253
F0.0
aF0.0
aa(lp254
F0.0
aF0.0
aa(lp255
F0.0
aF0.0
aaaa(lp256
(lp257
(lp258
F127.0
aF411.0
aa(lp259
F0.0
aF0.0
aa(lp260
F0.0
aF0.0
aa(lp261
F0.0
aF0.0
aaa(lp262
(lp263
F725.0
aF410.0
aa(lp264
F0.0
aF0.0
aa(lp265
F0.0
aF0.0
aa(lp266
F0.0
aF0.0
aaaa(lp267
(lp268
(lp269
F125.0
aF410.0
aa(lp270
F0.0
aF0.0
aa(lp271
F0.0
aF0.0
aa(lp272
F0.0
aF0.0
aaa(lp273
(lp274
F723.0
aF411.0
aa(lp275
F0.0
aF0.0
aa(lp276
F0.0
aF0.0
aa(lp277
F0.0
aF0.0
aaaa(lp278
(lp279
(lp280
F124.0
aF409.0
aa(lp281
F0.0
aF0.0
aa(lp282
F0.0
aF0.0
aa(lp283
F0.0
aF0.0
aaa(lp284
(lp285
F721.0
aF410.0
aa(lp286
F0.0
aF0.0
aa(lp287
F0.0
aF0.0
aa(lp288
F0.0
aF0.0
aaaa(lp289
(lp290
(lp291
F125.0
aF409.0
aa(lp292
F0.0
aF0.0
aa(lp293
F0.0
aF0.0
aa(lp294
F0.0
aF0.0
aaa(lp295
(lp296
F722.0
aF410.0
aa(lp297
F0.0
aF0.0
aa(lp298
F0.0
aF0.0
aa(lp299
F0.0
aF0.0
aaaa(lp300
(lp301
(lp302
F125.0
aF409.0
aa(lp303
F0.0
aF0.0
aa(lp304
F0.0
aF0.0
aa(lp305
F0.0
aF0.0
aaa(lp306
(lp307
F722.0
aF410.0
aa(lp308
F0.0
aF0.0
aa(lp309
F0.0
aF0.0
aa(lp310
F0.0
aF0.0
aaaa(lp311
g301
a(lp312
(lp313
F722.0
aF410.0
aa(lp314
F0.0
aF0.0
aa(lp315
F0.0
aF0.0
aa(lp316
F0.0
aF0.0
aaaa(lp317
(lp318
(lp319
F126.0
aF410.0
aa(lp320
F0.0
aF0.0
aa(lp321
F0.0
aF0.0
aa(lp322
F0.0
aF0.0
aaa(lp323
(lp324
F723.0
aF410.0
aa(lp325
F0.0
aF0.0
aa(lp326
F0.0
aF0.0
aa(lp327
F0.0
aF0.0
aaaa(lp328
(lp329
(lp330
F126.0
aF410.0
aa(lp331
F0.0
aF0.0
aa(lp332
F0.0
aF0.0
aa(lp333
F0.0
aF0.0
aaa(lp334
(lp335
F723.0
aF410.0
aa(lp336
F0.0
aF0.0
aa(lp337
F0.0
aF0.0
aa(lp338
F0.0
aF0.0
aaaa(lp339
(lp340
(lp341
F127.0
aF410.0
aa(lp342
F0.0
aF0.0
aa(lp343
F0.0
aF0.0
aa(lp344
F0.0
aF0.0
aaa(lp345
(lp346
F724.0
aF410.0
aa(lp347
F0.0
aF0.0
aa(lp348
F0.0
aF0.0
aa(lp349
F0.0
aF0.0
aaaa(lp350
(lp351
(lp352
F128.0
aF410.0
aa(lp353
F0.0
aF0.0
aa(lp354
F0.0
aF0.0
aa(lp355
F0.0
aF0.0
aaa(lp356
(lp357
F725.0
aF410.0
aa(lp358
F0.0
aF0.0
aa(lp359
F0.0
aF0.0
aa(lp360
F0.0
aF0.0
aaaa.