(lp0
(lp1
I00
aI00
a(lp2
(lp3
(lp4
F140.0
aF407.0
aa(lp5
F0.0
aF0.0
aa(lp6
F0.0
aF0.0
aa(lp7
F0.0
aF0.0
aaa(lp8
(lp9
F736.0
aF407.0
aa(lp10
F0.0
aF0.0
aa(lp11
F0.0
aF0.0
aa(lp12
F0.0
aF0.0
aaaacnumpy.core.multiarray
scalar
p13
(cnumpy
dtype
p14
(S'f8'
p15
I0
I1
tp16
Rp17
(I3
S'<'
p18
NNNI-1
I-1
I0
tp19
bS'\x00\x00\x00\x00\x00\x80a@'
p20
tp21
Rp22
ag13
(g17
S'\x00\x00\x00\x00\x00\x00\x87@'
p23
tp24
Rp25
ag13
(g17
S'\x19}\x18\x9f\x0eoy@'
p26
tp27
Rp28
ag13
(g17
S'\x00\x00\x00\x00\x00py@'
p29
tp30
Rp31
ag13
(g17
S'Z\n\xc3uR\x90>@'
p32
tp33
Rp34
aI0
aI0
aI0
aI0
aI0
aa(lp35
I00
aI00
a(lp36
(lp37
(lp38
F140.0
aF407.0
aa(lp39
F0.0
aF0.0
aa(lp40
F0.0
aF0.0
aa(lp41
F0.0
aF0.0
aaa(lp42
(lp43
F736.0
aF407.0
aa(lp44
F0.0
aF0.0
aa(lp45
F0.0
aF0.0
aa(lp46
F0.0
aF0.0
aaaag13
(g17
S'\x00\x00\x00\x00\x00\x80a@'
p47
tp48
Rp49
ag13
(g17
S'\x00\x00\x00\x00\x00\x00\x87@'
p50
tp51
Rp52
ag13
(g17
S'\x87s\xdbz\xb3oy@'
p53
tp54
Rp55
ag13
(g17
S'\x00\x00\x00\x00\x00py@'
p56
tp57
Rp58
ag13
(g17
S'\xc5<\x04xR\x90>@'
p59
tp60
Rp61
aI0
aI0
aI0
aI0
aI0
aa(lp62
I00
aI00
a(lp63
(lp64
(lp65
F140.0
aF406.0
aa(lp66
F0.0
aF0.0
aa(lp67
F0.0
aF0.0
aa(lp68
F0.0
aF0.0
aaa(lp69
(lp70
F736.0
aF407.0
aa(lp71
F0.0
aF0.0
aa(lp72
F0.0
aF0.0
aa(lp73
F0.0
aF0.0
aaaag13
(g17
S'\x00\x00\x00\x00\x00\x80a@'
p74
tp75
Rp76
ag13
(g17
S'\x00\x00\x00\x00\x00\x00\x87@'
p77
tp78
Rp79
ag13
(g17
S'\x15EY}\xf2oy@'
p80
tp81
Rp82
ag13
(g17
S'\x00\x00\x00\x00\x00py@'
p83
tp84
Rp85
ag13
(g17
S'\xee\xb6BxR\x90>@'
p86
tp87
Rp88
aI0
aI0
aI0
aI0
aI0
aa(lp89
I00
aI00
a(lp90
(lp91
(lp92
F140.0
aF406.0
aa(lp93
F0.0
aF0.0
aa(lp94
F0.0
aF0.0
aa(lp95
F0.0
aF0.0
aaa(lp96
(lp97
F736.0
aF407.0
aa(lp98
F0.0
aF0.0
aa(lp99
F0.0
aF0.0
aa(lp100
F0.0
aF0.0
aaaag13
(g17
S'\x00\x00\x00\x00\x00\x80a@'
p101
tp102
Rp103
ag13
(g17
S'\x00\x00\x00\x00\x00\x00\x87@'
p104
tp105
Rp106
ag13
(g17
S'\x00\x00\x00\x00\x00py@'
p107
tp108
Rp109
ag13
(g17
S'\x00\x00\x00\x00\x00py@'
p110
tp111
Rp112
ag13
(g17
S'\x8f\xb9DxR\x90>@'
p113
tp114
Rp115
aI0
aI0
aI0
aI0
aI0
aa(lp116
I00
aI00
a(lp117
(lp118
(lp119
F140.0
aF406.0
aa(lp120
F0.0
aF0.0
aa(lp121
F0.0
aF0.0
aa(lp122
F0.0
aF0.0
aaa(lp123
(lp124
F736.0
aF407.0
aa(lp125
F0.0
aF0.0
aa(lp126
F0.0
aF0.0
aa(lp127
F0.0
aF0.0
aaaag13
(g17
S'\x00\x00\x00\x00\x00\x80a@'
p128
tp129
Rp130
ag13
(g17
S'\x00\x00\x00\x00\x00\x00\x87@'
p131
tp132
Rp133
ag13
(g17
S'\x15EY}\xf2oy@'
p134
tp135
Rp136
ag13
(g17
S'\x00\x00\x00\x00\x00py@'
p137
tp138
Rp139
ag13
(g17
S'\xee\xb6BxR\x90>@'
p140
tp141
Rp142
aI0
aI0
aI0
aI0
aI0
aa(lp143
I00
aI00
a(lp144
g118
a(lp145
(lp146
F736.0
aF407.0
aa(lp147
F0.0
aF0.0
aa(lp148
F0.0
aF0.0
aa(lp149
F0.0
aF0.0
aaaag13
(g17
S'\x00\x00\x00\x00\x00\x80a@'
p150
tp151
Rp152
ag13
(g17
S'\x00\x00\x00\x00\x00\x00\x87@'
p153
tp154
Rp155
ag13
(g17
S'\x87s\xdbz\xb3oy@'
p156
tp157
Rp158
ag13
(g17
S'\x00\x00\x00\x00\x00py@'
p159
tp160
Rp161
ag13
(g17
S'\xc5<\x04xR\x90>@'
p162
tp163
Rp164
aI0
aI0
aI0
aI0
aI0
aa(lp165
I00
aI00
a(lp166
(lp167
(lp168
F140.0
aF406.0
aa(lp169
F0.0
aF0.0
aa(lp170
F0.0
aF0.0
aa(lp171
F0.0
aF0.0
aaa(lp172
(lp173
F736.0
aF407.0
aa(lp174
F0.0
aF0.0
aa(lp175
F0.0
aF0.0
aa(lp176
F0.0
aF0.0
aaaag13
(g17
S'\x00\x00\x00\x00\x00\x80a@'
p177
tp178
Rp179
ag13
(g17
S'\x00\x00\x00\x00\x00\x00\x87@'
p180
tp181
Rp182
ag13
(g17
S'\x19}\x18\x9f\x0eoy@'
p183
tp184
Rp185
ag13
(g17
S'\x00\x00\x00\x00\x00py@'
p186
tp187
Rp188
ag13
(g17
S'Z\n\xc3uR\x90>@'
p189
tp190
Rp191
aI0
aI0
aI0
aI0
aI0
aa(lp192
I00
aI00
a(lp193
(lp194
(lp195
F140.0
aF406.0
aa(lp196
F0.0
aF0.0
aa(lp197
F0.0
aF0.0
aa(lp198
F0.0
aF0.0
aaa(lp199
(lp200
F736.0
aF407.0
aa(lp201
F0.0
aF0.0
aa(lp202
F0.0
aF0.0
aa(lp203
F0.0
aF0.0
aaaag13
(g17
S'\x00\x00\x00\x00\x00\x80a@'
p204
tp205
Rp206
ag13
(g17
S'\x00\x00\x00\x00\x00\x00\x87@'
p207
tp208
Rp209
ag13
(g17
S'\x8a\xaaW\xc1\xcemy@'
p210
tp211
Rp212
ag13
(g17
S'\x00\x00\x00\x00\x00py@'
p213
tp214
Rp215
ag13
(g17
S'~\x87\xb7jR\x90>@'
p216
tp217
Rp218
aI0
aI0
aI0
aI0
aI0
aa(lp219
I00
aI00
a(lp220
(lp221
(lp222
F140.0
aF407.0
aa(lp223
F0.0
aF0.0
aa(lp224
F0.0
aF0.0
aa(lp225
F0.0
aF0.0
aaa(lp226
(lp227
F736.0
aF407.0
aa(lp228
F0.0
aF0.0
aa(lp229
F0.0
aF0.0
aa(lp230
F0.0
aF0.0
aaaag13
(g17
S'\x00\x00\x00\x00\x00\x80a@'
p231
tp232
Rp233
ag13
(g17
S'\x00\x00\x00\x00\x00\x00\x87@'
p234
tp235
Rp236
ag13
(g17
S'\x9d\x93al\xddky@'
p237
tp238
Rp239
ag13
(g17
S'\x00\x00\x00\x00\x00py@'
p240
tp241
Rp242
ag13
(g17
S'\xaf3\x0fHR\x90>@'
p243
tp244
Rp245
aI0
aI0
aI0
aI0
aI0
aa(lp246
I00
aI00
a(lp247
(lp248
(lp249
F140.0
aF407.0
aa(lp250
F0.0
aF0.0
aa(lp251
F0.0
aF0.0
aa(lp252
F0.0
aF0.0
aaa(lp253
(lp254
F736.0
aF407.0
aa(lp255
F0.0
aF0.0
aa(lp256
F0.0
aF0.0
aa(lp257
F0.0
aF0.0
aaaag13
(g17
S'\x00\x00\x00\x00\x00\x80a@'
p258
tp259
Rp260
ag13
(g17
S'\x00\x00\x00\x00\x00\x00\x87@'
p261
tp262
Rp263
ag13
(g17
S'\xbb7\xa0L\\iy@'
p264
tp265
Rp266
ag13
(g17
S'\x00\x00\x00\x00\x00py@'
p267
tp268
Rp269
ag13
(g17
S'H\x03\xfb\xfbQ\x90>@'
p270
tp271
Rp272
aI0
aI0
aI0
aI0
aI0
aa(lp273
I00
aI00
a(lp274
(lp275
(lp276
F140.0
aF407.0
aa(lp277
F0.0
aF0.0
aa(lp278
F0.0
aF0.0
aa(lp279
F0.0
aF0.0
aaa(lp280
(lp281
F736.0
aF407.0
aa(lp282
F0.0
aF0.0
aa(lp283
F0.0
aF0.0
aa(lp284
F0.0
aF0.0
aaaag13
(g17
S'\x00\x00\x00\x00\x00\x80a@'
p285
tp286
Rp287
ag13
(g17
S'\x00\x00\x00\x00\x00\x00\x87@'
p288
tp289
Rp290
ag13
(g17
S'1\x83\x066\xb1fy@'
p291
tp292
Rp293
ag13
(g17
S'\x00\x00\x00\x00\x00py@'
p294
tp295
Rp296
ag13
(g17
S':\xc5\x01\x84Q\x90>@'
p297
tp298
Rp299
aI0
aI0
aI0
aI0
aI0
aa(lp300
I00
aI00
a(lp301
(lp302
(lp303
F140.0
aF407.0
aa(lp304
F0.0
aF0.0
aa(lp305
F0.0
aF0.0
aa(lp306
F0.0
aF0.0
aaa(lp307
(lp308
F736.0
aF407.0
aa(lp309
F0.0
aF0.0
aa(lp310
F0.0
aF0.0
aa(lp311
F0.0
aF0.0
aaaag13
(g17
S'\x00\x00\x00\x00\x00\x80a@'
p312
tp313
Rp314
ag13
(g17
S'\x00\x00\x00\x00\x00\x00\x87@'
p315
tp316
Rp317
ag13
(g17
S'\xdd\xf8\xc2\x18ody@'
p318
tp319
Rp320
ag13
(g17
S'\x00\x00\x00\x00\x00py@'
p321
tp322
Rp323
ag13
(g17
S'uM\x1a\xffP\x90>@'
p324
tp325
Rp326
aI0
aI0
aI0
aI0
aI0
aa(lp327
I00
aI00
a(lp328
(lp329
(lp330
F140.0
aF407.0
aa(lp331
F0.0
aF0.0
aa(lp332
F0.0
aF0.0
aa(lp333
F0.0
aF0.0
aaa(lp334
(lp335
F736.0
aF407.0
aa(lp336
F0.0
aF0.0
aa(lp337
F0.0
aF0.0
aa(lp338
F0.0
aF0.0
aaaag13
(g17
S'\x00\x00\x00\x00\x00\x80a@'
p339
tp340
Rp341
ag13
(g17
S'\x00\x00\x00\x00\x00\x00\x87@'
p342
tp343
Rp344
ag13
(g17
S'^\xd8\x8f\x9f"cy@'
p345
tp346
Rp347
ag13
(g17
S'\x00\x00\x00\x00\x00py@'
p348
tp349
Rp350
ag13
(g17
S'}%\xa5\xa5P\x90>@'
p351
tp352
Rp353
aI0
aI0
aI0
aI0
aI0
aa(lp354
I00
aI00
a(lp355
(lp356
(lp357
F140.0
aF407.0
aa(lp358
F0.0
aF0.0
aa(lp359
F0.0
aF0.0
aa(lp360
F0.0
aF0.0
aaa(lp361
(lp362
F736.0
aF407.0
aa(lp363
F0.0
aF0.0
aa(lp364
F0.0
aF0.0
aa(lp365
F0.0
aF0.0
aaaag13
(g17
S'\x00\x00\x00\x00\x00\x80a@'
p366
tp367
Rp368
ag13
(g17
S'\x00\x00\x00\x00\x00\x00\x87@'
p369
tp370
Rp371
ag13
(g17
S'^\xd8\x8f\x9f"cy@'
p372
tp373
Rp374
ag13
(g17
S'\x00\x00\x00\x00\x00py@'
p375
tp376
Rp377
ag13
(g17
S'}%\xa5\xa5P\x90>@'
p378
tp379
Rp380
aI0
aI0
aI0
aI0
aI0
aa(lp381
I00
aI00
a(lp382
(lp383
(lp384
F140.0
aF407.0
aa(lp385
F0.0
aF0.0
aa(lp386
F0.0
aF0.0
aa(lp387
F0.0
aF0.0
aaa(lp388
(lp389
F736.0
aF407.0
aa(lp390
F0.0
aF0.0
aa(lp391
F0.0
aF0.0
aa(lp392
F0.0
aF0.0
aaaag13
(g17
S'\x00\x00\x00\x00\x00\x80a@'
p393
tp394
Rp395
ag13
(g17
S'\x00\x00\x00\x00\x00\x00\x87@'
p396
tp397
Rp398
ag13
(g17
S'\xdd\xf8\xc2\x18ody@'
p399
tp400
Rp401
ag13
(g17
S'\x00\x00\x00\x00\x00py@'
p402
tp403
Rp404
ag13
(g17
S'uM\x1a\xffP\x90>@'
p405
tp406
Rp407
aI0
aI0
aI0
aI0
aI0
aa(lp408
I00
aI00
a(lp409
(lp410
(lp411
F140.0
aF406.0
aa(lp412
F0.0
aF0.0
aa(lp413
F0.0
aF0.0
aa(lp414
F0.0
aF0.0
aaa(lp415
(lp416
F736.0
aF407.0
aa(lp417
F0.0
aF0.0
aa(lp418
F0.0
aF0.0
aa(lp419
F0.0
aF0.0
aaaag13
(g17
S'\x00\x00\x00\x00\x00\x80a@'
p420
tp421
Rp422
ag13
(g17
S'\x00\x00\x00\x00\x00\x00\x87@'
p423
tp424
Rp425
ag13
(g17
S'1\x83\x066\xb1fy@'
p426
tp427
Rp428
ag13
(g17
S'\x00\x00\x00\x00\x00py@'
p429
tp430
Rp431
ag13
(g17
S':\xc5\x01\x84Q\x90>@'
p432
tp433
Rp434
aI0
aI0
aI0
aI0
aI0
aa(lp435
I00
aI00
a(lp436
(lp437
(lp438
F140.0
aF406.0
aa(lp439
F0.0
aF0.0
aa(lp440
F0.0
aF0.0
aa(lp441
F0.0
aF0.0
aaa(lp442
(lp443
F736.0
aF407.0
aa(lp444
F0.0
aF0.0
aa(lp445
F0.0
aF0.0
aa(lp446
F0.0
aF0.0
aaaag13
(g17
S'\x00\x00\x00\x00\x00\x80a@'
p447
tp448
Rp449
ag13
(g17
S'\x00\x00\x00\x00\x00\x00\x87@'
p450
tp451
Rp452
ag13
(g17
S'\xbb7\xa0L\\iy@'
p453
tp454
Rp455
ag13
(g17
S'\x00\x00\x00\x00\x00py@'
p456
tp457
Rp458
ag13
(g17
S'H\x03\xfb\xfbQ\x90>@'
p459
tp460
Rp461
aI0
aI0
aI0
aI0
aI0
aa(lp462
I00
aI00
a(lp463
(lp464
(lp465
F140.0
aF406.0
aa(lp466
F0.0
aF0.0
aa(lp467
F0.0
aF0.0
aa(lp468
F0.0
aF0.0
aaa(lp469
(lp470
F736.0
aF407.0
aa(lp471
F0.0
aF0.0
aa(lp472
F0.0
aF0.0
aa(lp473
F0.0
aF0.0
aaaag13
(g17
S'\x00\x00\x00\x00\x00\x80a@'
p474
tp475
Rp476
ag13
(g17
S'\x00\x00\x00\x00\x00\x00\x87@'
p477
tp478
Rp479
ag13
(g17
S'\xb2\xd8\xba\xe9\xcfky@'
p480
tp481
Rp482
ag13
(g17
S'\x00\x00\x00\x00\x00py@'
p483
tp484
Rp485
ag13
(g17
S'\xfc*\xd2FR\x90>@'
p486
tp487
Rp488
aI0
aI0
aI0
aI0
aI0
aa(lp489
I00
aI00
a(lp490
(lp491
(lp492
F140.0
aF406.0
aa(lp493
F0.0
aF0.0
aa(lp494
F0.0
aF0.0
aa(lp495
F0.0
aF0.0
aaa(lp496
(lp497
F736.0
aF407.0
aa(lp498
F0.0
aF0.0
aa(lp499
F0.0
aF0.0
aa(lp500
F0.0
aF0.0
aaaag13
(g17
S'\x00\x00\x00\x00\x00\x80a@'
p501
tp502
Rp503
ag13
(g17
S'\x00\x00\x00\x00\x00\x00\x87@'
p504
tp505
Rp506
ag13
(g17
S'\x10\x1e3<\x82my@'
p507
tp508
Rp509
ag13
(g17
S'\x00\x00\x00\x00\x00py@'
p510
tp511
Rp512
ag13
(g17
S'\xd8\x0f\xc5fR\x90>@'
p513
tp514
Rp515
aI0
aI0
aI0
aI0
aI0
aa(lp516
I00
aI00
a(lp517
(lp518
(lp519
F140.0
aF406.0
aa(lp520
F0.0
aF0.0
aa(lp521
F0.0
aF0.0
aa(lp522
F0.0
aF0.0
aaa(lp523
(lp524
F736.0
aF407.0
aa(lp525
F0.0
aF0.0
aa(lp526
F0.0
aF0.0
aa(lp527
F0.0
aF0.0
aaaag13
(g17
S'\x00\x00\x00\x00\x00\x80a@'
p528
tp529
Rp530
ag13
(g17
S'\x00\x00\x00\x00\x00\x00\x87@'
p531
tp532
Rp533
ag13
(g17
S'1\xfa0>\x1dny@'
p534
tp535
Rp536
ag13
(g17
S'\x00\x00\x00\x00\x00py@'
p537
tp538
Rp539
ag13
(g17
S'\xbb\xfc=nR\x90>@'
p540
tp541
Rp542
aI0
aI0
aI0
aI0
aI0
aa(lp543
I00
aI00
a(lp544
(lp545
(lp546
F140.0
aF406.0
aa(lp547
F0.0
aF0.0
aa(lp548
F0.0
aF0.0
aa(lp549
F0.0
aF0.0
aaa(lp550
(lp551
F736.0
aF407.0
aa(lp552
F0.0
aF0.0
aa(lp553
F0.0
aF0.0
aa(lp554
F0.0
aF0.0
aaaag13
(g17
S'\x00\x00\x00\x00\x00\x80a@'
p555
tp556
Rp557
ag13
(g17
S'\x00\x00\x00\x00\x00\x00\x87@'
p558
tp559
Rp560
ag13
(g17
S'\x10\x1e3<\x82my@'
p561
tp562
Rp563
ag13
(g17
S'\x00\x00\x00\x00\x00py@'
p564
tp565
Rp566
ag13
(g17
S'\xd8\x0f\xc5fR\x90>@'
p567
tp568
Rp569
aI0
aI0
aI0
aI0
aI0
aa(lp570
I00
aI00
a(lp571
(lp572
(lp573
F140.0
aF406.0
aa(lp574
F0.0
aF0.0
aa(lp575
F0.0
aF0.0
aa(lp576
F0.0
aF0.0
aaa(lp577
(lp578
F736.0
aF407.0
aa(lp579
F0.0
aF0.0
aa(lp580
F0.0
aF0.0
aa(lp581
F0.0
aF0.0
aaaag13
(g17
S'\x00\x00\x00\x00\x00\x80a@'
p582
tp583
Rp584
ag13
(g17
S'\x00\x00\x00\x00\x00\x00\x87@'
p585
tp586
Rp587
ag13
(g17
S'\xb2\xd8\xba\xe9\xcfky@'
p588
tp589
Rp590
ag13
(g17
S'\x00\x00\x00\x00\x00py@'
p591
tp592
Rp593
ag13
(g17
S'\xfc*\xd2FR\x90>@'
p594
tp595
Rp596
aI0
aI0
aI0
aI0
aI0
aa(lp597
I00
aI00
a(lp598
(lp599
(lp600
F140.0
aF406.0
aa(lp601
F0.0
aF0.0
aa(lp602
F0.0
aF0.0
aa(lp603
F0.0
aF0.0
aaa(lp604
(lp605
F736.0
aF407.0
aa(lp606
F0.0
aF0.0
aa(lp607
F0.0
aF0.0
aa(lp608
F0.0
aF0.0
aaaag13
(g17
S'\x00\x00\x00\x00\x00\x80a@'
p609
tp610
Rp611
ag13
(g17
S'\x00\x00\x00\x00\x00\x00\x87@'
p612
tp613
Rp614
ag13
(g17
S'\xbb7\xa0L\\iy@'
p615
tp616
Rp617
ag13
(g17
S'\x00\x00\x00\x00\x00py@'
p618
tp619
Rp620
ag13
(g17
S'H\x03\xfb\xfbQ\x90>@'
p621
tp622
Rp623
aI0
aI0
aI0
aI0
aI0
aa(lp624
I00
aI00
a(lp625
(lp626
(lp627
F140.0
aF406.0
aa(lp628
F0.0
aF0.0
aa(lp629
F0.0
aF0.0
aa(lp630
F0.0
aF0.0
aaa(lp631
(lp632
F736.0
aF407.0
aa(lp633
F0.0
aF0.0
aa(lp634
F0.0
aF0.0
aa(lp635
F0.0
aF0.0
aaaag13
(g17
S'\x00\x00\x00\x00\x00\x80a@'
p636
tp637
Rp638
ag13
(g17
S'\x00\x00\x00\x00\x00\x00\x87@'
p639
tp640
Rp641
ag13
(g17
S'F\xc8_\xb3\xa3fy@'
p642
tp643
Rp644
ag13
(g17
S'\x00\x00\x00\x00\x00py@'
p645
tp646
Rp647
ag13
(g17
S'\xa2\xa9:\x81Q\x90>@'
p648
tp649
Rp650
aI0
aI0
aI0
aI0
aI0
aa(lp651
I00
aI00
a(lp652
(lp653
(lp654
F140.0
aF406.0
aa(lp655
F0.0
aF0.0
aa(lp656
F0.0
aF0.0
aa(lp657
F0.0
aF0.0
aaa(lp658
(lp659
F736.0
aF407.0
aa(lp660
F0.0
aF0.0
aa(lp661
F0.0
aF0.0
aa(lp662
F0.0
aF0.0
aaaag13
(g17
S'\x00\x00\x00\x00\x00\x80a@'
p663
tp664
Rp665
ag13
(g17
S'\x00\x00\x00\x00\x00\x00\x87@'
p666
tp667
Rp668
ag13
(g17
S'dl\x9e\x93"dy@'
p669
tp670
Rp671
ag13
(g17
S'\x00\x00\x00\x00\x00py@'
p672
tp673
Rp674
ag13
(g17
S'\xb06[\xebP\x90>@'
p675
tp676
Rp677
aI0
aI0
aI0
aI0
aI0
aa(lp678
I00
aI00
a(lp679
(lp680
(lp681
F140.0
aF406.0
aa(lp682
F0.0
aF0.0
aa(lp683
F0.0
aF0.0
aa(lp684
F0.0
aF0.0
aaa(lp685
(lp686
F736.0
aF407.0
aa(lp687
F0.0
aF0.0
aa(lp688
F0.0
aF0.0
aa(lp689
F0.0
aF0.0
aaaag13
(g17
S'\x00\x00\x00\x00\x00\x80a@'
p690
tp691
Rp692
ag13
(g17
S'\x00\x00\x00\x00\x00\x00\x87@'
p693
tp694
Rp695
ag13
(g17
S'wU\xa8>1by@'
p696
tp697
Rp698
ag13
(g17
S'\x00\x00\x00\x00\x00py@'
p699
tp700
Rp701
ag13
(g17
S'60\xbd^P\x90>@'
p702
tp703
Rp704
aI0
aI0
aI0
aI0
aI0
aa(lp705
I00
aI00
a(lp706
(lp707
(lp708
F140.0
aF406.0
aa(lp709
F0.0
aF0.0
aa(lp710
F0.0
aF0.0
aa(lp711
F0.0
aF0.0
aaa(lp712
(lp713
F736.0
aF407.0
aa(lp714
F0.0
aF0.0
aa(lp715
F0.0
aF0.0
aa(lp716
F0.0
aF0.0
aaaag13
(g17
S'\x00\x00\x00\x00\x00\x80a@'
p717
tp718
Rp719
ag13
(g17
S'\x00\x00\x00\x00\x00\x00\x87@'
p720
tp721
Rp722
ag13
(g17
S'\xe8\x82\xe7`\xf1`y@'
p723
tp724
Rp725
ag13
(g17
S'\x00\x00\x00\x00\x00py@'
p726
tp727
Rp728
ag13
(g17
S'\xab\xb4\r\xf9O\x90>@'
p729
tp730
Rp731
aI0
aI0
aI0
aI0
aI0
aa(lp732
I00
aI00
a(lp733
(lp734
(lp735
F140.0
aF406.0
aa(lp736
F0.0
aF0.0
aa(lp737
F0.0
aF0.0
aa(lp738
F0.0
aF0.0
aaa(lp739
(lp740
F736.0
aF406.0
aa(lp741
F0.0
aF0.0
aa(lp742
F0.0
aF0.0
aa(lp743
F0.0
aF0.0
aaaag13
(g17
S'\x00\x00\x00\x00\x00\x80a@'
p744
tp745
Rp746
ag13
(g17
S'\x00\x00\x00\x00\x00\x00\x87@'
p747
tp748
Rp749
ag13
(g17
S'z\x8c$\x85L`y@'
p750
tp751
Rp752
ag13
(g17
S'\x00\x00\x00\x00\x00py@'
p753
tp754
Rp755
ag13
(g17
S'\xb0\n5\xc1O\x90>@'
p756
tp757
Rp758
aI0
aI0
aI0
aI0
aI0
aa(lp759
I00
aI00
a(lp760
(lp761
(lp762
F140.0
aF406.0
aa(lp763
F0.0
aF0.0
aa(lp764
F0.0
aF0.0
aa(lp765
F0.0
aF0.0
aaa(lp766
(lp767
F736.0
aF406.0
aa(lp768
F0.0
aF0.0
aa(lp769
F0.0
aF0.0
aa(lp770
F0.0
aF0.0
aaaag13
(g17
S'\x00\x00\x00\x00\x00\x80a@'
p771
tp772
Rp773
ag13
(g17
S'\x00\x00\x00\x00\x00\x00\x87@'
p774
tp775
Rp776
ag13
(g17
S'\xeb\xba\xa6\x82\r`y@'
p777
tp778
Rp779
ag13
(g17
S'\x00\x00\x00\x00\x00py@'
p780
tp781
Rp782
ag13
(g17
S'\xe1\xa7>\xabO\x90>@'
p783
tp784
Rp785
aI0
aI0
aI0
aI0
aI0
aa(lp786
I00
aI00
a(lp787
(lp788
(lp789
F140.0
aF406.0
aa(lp790
F0.0
aF0.0
aa(lp791
F0.0
aF0.0
aa(lp792
F0.0
aF0.0
aaa(lp793
(lp794
F736.0
aF406.0
aa(lp795
F0.0
aF0.0
aa(lp796
F0.0
aF0.0
aa(lp797
F0.0
aF0.0
aaaag13
(g17
S'\x00\x00\x00\x00\x00\x80a@'
p798
tp799
Rp800
ag13
(g17
S'\x00\x00\x00\x00\x00\x00\x87@'
p801
tp802
Rp803
ag13
(g17
S'\x00\x00\x00\x00\x00`y@'
p804
tp805
Rp806
ag13
(g17
S'\x15EY}\xf2oy@'
p807
tp808
Rp809
ag13
(g17
S'\xe1\xa7>\xabO\x90>@'
p810
tp811
Rp812
aI0
aI0
aI0
aI0
aI0
aa(lp813
I00
aI00
a(lp814
(lp815
(lp816
F140.0
aF406.0
aa(lp817
F0.0
aF0.0
aa(lp818
F0.0
aF0.0
aa(lp819
F0.0
aF0.0
aaa(lp820
(lp821
F736.0
aF406.0
aa(lp822
F0.0
aF0.0
aa(lp823
F0.0
aF0.0
aa(lp824
F0.0
aF0.0
aaaag13
(g17
S'\x00\x00\x00\x00\x00\x80a@'
p825
tp826
Rp827
ag13
(g17
S'\x00\x00\x00\x00\x00\x00\x87@'
p828
tp829
Rp830
ag13
(g17
S'\x00\x00\x00\x00\x00`y@'
p831
tp832
Rp833
ag13
(g17
S'\x87s\xdbz\xb3oy@'
p834
tp835
Rp836
ag13
(g17
S'\xb0\n5\xc1O\x90>@'
p837
tp838
Rp839
aI0
aI0
aI0
aI0
aI0
aa(lp840
I00
aI00
a(lp841
(lp842
(lp843
F140.0
aF406.0
aa(lp844
F0.0
aF0.0
aa(lp845
F0.0
aF0.0
aa(lp846
F0.0
aF0.0
aaag820
aag13
(g17
S'\x00\x00\x00\x00\x00\x80a@'
p847
tp848
Rp849
ag13
(g17
S'\x00\x00\x00\x00\x00\x00\x87@'
p850
tp851
Rp852
ag13
(g17
S'\x00\x00\x00\x00\x00`y@'
p853
tp854
Rp855
ag13
(g17
S'\x19}\x18\x9f\x0eoy@'
p856
tp857
Rp858
ag13
(g17
S'\xab\xb4\r\xf9O\x90>@'
p859
tp860
Rp861
aI0
aI0
aI0
aI0
aI0
aa(lp862
I00
aI00
a(lp863
(lp864
(lp865
F140.0
aF406.0
aa(lp866
F0.0
aF0.0
aa(lp867
F0.0
aF0.0
aa(lp868
F0.0
aF0.0
aaa(lp869
(lp870
F736.0
aF406.0
aa(lp871
F0.0
aF0.0
aa(lp872
F0.0
aF0.0
aa(lp873
F0.0
aF0.0
aaaag13
(g17
S'\x00\x00\x00\x00\x00\x80a@'
p874
tp875
Rp876
ag13
(g17
S'\x00\x00\x00\x00\x00\x00\x87@'
p877
tp878
Rp879
ag13
(g17
S'\x00\x00\x00\x00\x00`y@'
p880
tp881
Rp882
ag13
(g17
S'\x8a\xaaW\xc1\xcemy@'
p883
tp884
Rp885
ag13
(g17
S'60\xbd^P\x90>@'
p886
tp887
Rp888
aI0
aI0
aI0
aI0
aI0
aa(lp889
I00
aI00
a(lp890
(lp891
(lp892
F140.0
aF406.0
aa(lp893
F0.0
aF0.0
aa(lp894
F0.0
aF0.0
aa(lp895
F0.0
aF0.0
aaa(lp896
(lp897
F736.0
aF406.0
aa(lp898
F0.0
aF0.0
aa(lp899
F0.0
aF0.0
aa(lp900
F0.0
aF0.0
aaaag13
(g17
S'\x00\x00\x00\x00\x00\x80a@'
p901
tp902
Rp903
ag13
(g17
S'\x00\x00\x00\x00\x00\x00\x87@'
p904
tp905
Rp906
ag13
(g17
S'\x00\x00\x00\x00\x00`y@'
p907
tp908
Rp909
ag13
(g17
S'\x9d\x93al\xddky@'
p910
tp911
Rp912
ag13
(g17
S'\xb06[\xebP\x90>@'
p913
tp914
Rp915
aI0
aI0
aI0
aI0
aI0
aa(lp916
I00
aI00
a(lp917
(lp918
(lp919
F140.0
aF406.0
aa(lp920
F0.0
aF0.0
aa(lp921
F0.0
aF0.0
aa(lp922
F0.0
aF0.0
aaa(lp923
(lp924
F736.0
aF406.0
aa(lp925
F0.0
aF0.0
aa(lp926
F0.0
aF0.0
aa(lp927
F0.0
aF0.0
aaaag13
(g17
S'\x00\x00\x00\x00\x00\x80a@'
p928
tp929
Rp930
ag13
(g17
S'\x00\x00\x00\x00\x00\x00\x87@'
p931
tp932
Rp933
ag13
(g17
S'\x00\x00\x00\x00\x00`y@'
p934
tp935
Rp936
ag13
(g17
S'\xbb7\xa0L\\iy@'
p937
tp938
Rp939
ag13
(g17
S'\xa2\xa9:\x81Q\x90>@'
p940
tp941
Rp942
aI0
aI0
aI0
aI0
aI0
aa(lp943
I00
aI00
a(lp944
(lp945
(lp946
F140.0
aF406.0
aa(lp947
F0.0
aF0.0
aa(lp948
F0.0
aF0.0
aa(lp949
F0.0
aF0.0
aaa(lp950
(lp951
F736.0
aF406.0
aa(lp952
F0.0
aF0.0
aa(lp953
F0.0
aF0.0
aa(lp954
F0.0
aF0.0
aaaag13
(g17
S'\x00\x00\x00\x00\x00\x80a@'
p955
tp956
Rp957
ag13
(g17
S'\x00\x00\x00\x00\x00\x00\x87@'
p958
tp959
Rp960
ag13
(g17
S'\x00\x00\x00\x00\x00`y@'
p961
tp962
Rp963
ag13
(g17
S'F\xc8_\xb3\xa3fy@'
p964
tp965
Rp966
ag13
(g17
S'H\x03\xfb\xfbQ\x90>@'
p967
tp968
Rp969
aI0
aI0
aI0
aI0
aI0
aa(lp970
I00
aI00
a(lp971
(lp972
(lp973
F140.0
aF406.0
aa(lp974
F0.0
aF0.0
aa(lp975
F0.0
aF0.0
aa(lp976
F0.0
aF0.0
aaa(lp977
(lp978
F736.0
aF406.0
aa(lp979
F0.0
aF0.0
aa(lp980
F0.0
aF0.0
aa(lp981
F0.0
aF0.0
aaaag13
(g17
S'\x00\x00\x00\x00\x00\x80a@'
p982
tp983
Rp984
ag13
(g17
S'\x00\x00\x00\x00\x00\x00\x87@'
p985
tp986
Rp987
ag13
(g17
S'\x00\x00\x00\x00\x00`y@'
p988
tp989
Rp990
ag13
(g17
S'dl\x9e\x93"dy@'
p991
tp992
Rp993
ag13
(g17
S'\xaf3\x0fHR\x90>@'
p994
tp995
Rp996
aI0
aI0
aI0
aI0
aI0
aa(lp997
I00
aI00
a(lp998
(lp999
(lp1000
F140.0
aF406.0
aa(lp1001
F0.0
aF0.0
aa(lp1002
F0.0
aF0.0
aa(lp1003
F0.0
aF0.0
aaa(lp1004
(lp1005
F736.0
aF406.0
aa(lp1006
F0.0
aF0.0
aa(lp1007
F0.0
aF0.0
aa(lp1008
F0.0
aF0.0
aaaag13
(g17
S'\x00\x00\x00\x00\x00\x80a@'
p1009
tp1010
Rp1011
ag13
(g17
S'\x00\x00\x00\x00\x00\x00\x87@'
p1012
tp1013
Rp1014
ag13
(g17
S'\x00\x00\x00\x00\x00`y@'
p1015
tp1016
Rp1017
ag13
(g17
S'wU\xa8>1by@'
p1018
tp1019
Rp1020
ag13
(g17
S'~\x87\xb7jR\x90>@'
p1021
tp1022
Rp1023
aI0
aI0
aI0
aI0
aI0
aa(lp1024
I00
aI00
a(lp1025
(lp1026
(lp1027
F140.0
aF406.0
aa(lp1028
F0.0
aF0.0
aa(lp1029
F0.0
aF0.0
aa(lp1030
F0.0
aF0.0
aaa(lp1031
(lp1032
F736.0
aF406.0
aa(lp1033
F0.0
aF0.0
aa(lp1034
F0.0
aF0.0
aa(lp1035
F0.0
aF0.0
aaaag13
(g17
S'\x00\x00\x00\x00\x00\x80a@'
p1036
tp1037
Rp1038
ag13
(g17
S'\x00\x00\x00\x00\x00\x00\x87@'
p1039
tp1040
Rp1041
ag13
(g17
S'\x00\x00\x00\x00\x00`y@'
p1042
tp1043
Rp1044
ag13
(g17
S'\xe8\x82\xe7`\xf1`y@'
p1045
tp1046
Rp1047
ag13
(g17
S'Z\n\xc3uR\x90>@'
p1048
tp1049
Rp1050
aI0
aI0
aI0
aI0
aI0
aa(lp1051
I00
aI00
a(lp1052
(lp1053
(lp1054
F140.0
aF406.0
aa(lp1055
F0.0
aF0.0
aa(lp1056
F0.0
aF0.0
aa(lp1057
F0.0
aF0.0
aaa(lp1058
(lp1059
F736.0
aF406.0
aa(lp1060
F0.0
aF0.0
aa(lp1061
F0.0
aF0.0
aa(lp1062
F0.0
aF0.0
aaaag13
(g17
S'\x00\x00\x00\x00\x00\x80a@'
p1063
tp1064
Rp1065
ag13
(g17
S'\x00\x00\x00\x00\x00\x00\x87@'
p1066
tp1067
Rp1068
ag13
(g17
S'\x00\x00\x00\x00\x00`y@'
p1069
tp1070
Rp1071
ag13
(g17
S'z\x8c$\x85L`y@'
p1072
tp1073
Rp1074
ag13
(g17
S'\xc5<\x04xR\x90>@'
p1075
tp1076
Rp1077
aI0
aI0
aI0
aI0
aI0
aa(lp1078
I00
aI00
a(lp1079
(lp1080
(lp1081
F140.0
aF406.0
aa(lp1082
F0.0
aF0.0
aa(lp1083
F0.0
aF0.0
aa(lp1084
F0.0
aF0.0
aaag1058
aag13
(g17
S'\x00\x00\x00\x00\x00\x80a@'
p1085
tp1086
Rp1087
ag13
(g17
S'\x00\x00\x00\x00\x00\x00\x87@'
p1088
tp1089
Rp1090
ag13
(g17
S'\x00\x00\x00\x00\x00`y@'
p1091
tp1092
Rp1093
ag13
(g17
S'\xeb\xba\xa6\x82\r`y@'
p1094
tp1095
Rp1096
ag13
(g17
S'\xee\xb6BxR\x90>@'
p1097
tp1098
Rp1099
aI0
aI0
aI0
aI0
aI0
aa(lp1100
I00
aI00
a(lp1101
(lp1102
(lp1103
F140.0
aF406.0
aa(lp1104
F0.0
aF0.0
aa(lp1105
F0.0
aF0.0
aa(lp1106
F0.0
aF0.0
aaa(lp1107
(lp1108
F736.0
aF406.0
aa(lp1109
F0.0
aF0.0
aa(lp1110
F0.0
aF0.0
aa(lp1111
F0.0
aF0.0
aaaag13
(g17
S'\x00\x00\x00\x00\x00\x80a@'
p1112
tp1113
Rp1114
ag13
(g17
S'\x00\x00\x00\x00\x00\x00\x87@'
p1115
tp1116
Rp1117
ag13
(g17
S'\x00\x00\x00\x00\x00`y@'
p1118
tp1119
Rp1120
ag13
(g17
S'\x00\x00\x00\x00\x00`y@'
p1121
tp1122
Rp1123
ag13
(g17
S'\x8f\xb9DxR\x90>@'
p1124
tp1125
Rp1126
aI0
aI0
aI0
aI0
aI0
aa(lp1127
I00
aI00
a(lp1128
(lp1129
(lp1130
F140.0
aF406.0
aa(lp1131
F0.0
aF0.0
aa(lp1132
F0.0
aF0.0
aa(lp1133
F0.0
aF0.0
aaa(lp1134
(lp1135
F736.0
aF406.0
aa(lp1136
F0.0
aF0.0
aa(lp1137
F0.0
aF0.0
aa(lp1138
F0.0
aF0.0
aaaag13
(g17
S'\x00\x00\x00\x00\x00\x80a@'
p1139
tp1140
Rp1141
ag13
(g17
S'\x00\x00\x00\x00\x00\x00\x87@'
p1142
tp1143
Rp1144
ag13
(g17
S'\x00\x00\x00\x00\x00`y@'
p1145
tp1146
Rp1147
ag13
(g17
S'\x00\x00\x00\x00\x00`y@'
p1148
tp1149
Rp1150
ag13
(g17
S'\x8f\xb9DxR\x90>@'
p1151
tp1152
Rp1153
aI0
aI0
aI0
aI0
aI0
aa(lp1154
I00
aI00
a(lp1155
(lp1156
(lp1157
F140.0
aF406.0
aa(lp1158
F0.0
aF0.0
aa(lp1159
F0.0
aF0.0
aa(lp1160
F0.0
aF0.0
aaa(lp1161
(lp1162
F736.0
aF406.0
aa(lp1163
F0.0
aF0.0
aa(lp1164
F0.0
aF0.0
aa(lp1165
F0.0
aF0.0
aaaag13
(g17
S'\x00\x00\x00\x00\x00\x80a@'
p1166
tp1167
Rp1168
ag13
(g17
S'\x00\x00\x00\x00\x00\x00\x87@'
p1169
tp1170
Rp1171
ag13
(g17
S'\x00\x00\x00\x00\x00`y@'
p1172
tp1173
Rp1174
ag13
(g17
S'\x00\x00\x00\x00\x00`y@'
p1175
tp1176
Rp1177
ag13
(g17
S'\x8f\xb9DxR\x90>@'
p1178
tp1179
Rp1180
aI0
aI0
aI0
aI0
aI0
aa(lp1181
I00
aI00
a(lp1182
(lp1183
(lp1184
F140.0
aF406.0
aa(lp1185
F0.0
aF0.0
aa(lp1186
F0.0
aF0.0
aa(lp1187
F0.0
aF0.0
aaa(lp1188
(lp1189
F736.0
aF406.0
aa(lp1190
F0.0
aF0.0
aa(lp1191
F0.0
aF0.0
aa(lp1192
F0.0
aF0.0
aaaag13
(g17
S'\x00\x00\x00\x00\x00\x80a@'
p1193
tp1194
Rp1195
ag13
(g17
S'\x00\x00\x00\x00\x00\x00\x87@'
p1196
tp1197
Rp1198
ag13
(g17
S'\x00\x00\x00\x00\x00`y@'
p1199
tp1200
Rp1201
ag13
(g17
S'\x00\x00\x00\x00\x00`y@'
p1202
tp1203
Rp1204
ag13
(g17
S'\x8f\xb9DxR\x90>@'
p1205
tp1206
Rp1207
aI0
aI0
aI0
aI0
aI0
aa(lp1208
I00
aI00
a(lp1209
(lp1210
(lp1211
F140.0
aF406.0
aa(lp1212
F0.0
aF0.0
aa(lp1213
F0.0
aF0.0
aa(lp1214
F0.0
aF0.0
aaa(lp1215
(lp1216
F736.0
aF406.0
aa(lp1217
F0.0
aF0.0
aa(lp1218
F0.0
aF0.0
aa(lp1219
F0.0
aF0.0
aaaag13
(g17
S'\x00\x00\x00\x00\x00\x80a@'
p1220
tp1221
Rp1222
ag13
(g17
S'\x00\x00\x00\x00\x00\x00\x87@'
p1223
tp1224
Rp1225
ag13
(g17
S'\x00\x00\x00\x00\x00`y@'
p1226
tp1227
Rp1228
ag13
(g17
S'\x00\x00\x00\x00\x00`y@'
p1229
tp1230
Rp1231
ag13
(g17
S'\x8f\xb9DxR\x90>@'
p1232
tp1233
Rp1234
aI0
aI0
aI0
aI0
aI0
aa(lp1235
I00
aI00
a(lp1236
(lp1237
(lp1238
F140.0
aF406.0
aa(lp1239
F0.0
aF0.0
aa(lp1240
F0.0
aF0.0
aa(lp1241
F0.0
aF0.0
aaa(lp1242
(lp1243
F736.0
aF406.0
aa(lp1244
F0.0
aF0.0
aa(lp1245
F0.0
aF0.0
aa(lp1246
F0.0
aF0.0
aaaag13
(g17
S'\x00\x00\x00\x00\x00\x80a@'
p1247
tp1248
Rp1249
ag13
(g17
S'\x00\x00\x00\x00\x00\x00\x87@'
p1250
tp1251
Rp1252
ag13
(g17
S'\x00\x00\x00\x00\x00`y@'
p1253
tp1254
Rp1255
ag13
(g17
S'\x00\x00\x00\x00\x00`y@'
p1256
tp1257
Rp1258
ag13
(g17
S'\x8f\xb9DxR\x90>@'
p1259
tp1260
Rp1261
aI0
aI0
aI0
aI0
aI0
aa(lp1262
I00
aI00
a(lp1263
(lp1264
(lp1265
F140.0
aF406.0
aa(lp1266
F0.0
aF0.0
aa(lp1267
F0.0
aF0.0
aa(lp1268
F0.0
aF0.0
aaa(lp1269
(lp1270
F736.0
aF406.0
aa(lp1271
F0.0
aF0.0
aa(lp1272
F0.0
aF0.0
aa(lp1273
F0.0
aF0.0
aaaag13
(g17
S'\x00\x00\x00\x00\x00\x80a@'
p1274
tp1275
Rp1276
ag13
(g17
S'\x00\x00\x00\x00\x00\x00\x87@'
p1277
tp1278
Rp1279
ag13
(g17
S'\x00\x00\x00\x00\x00`y@'
p1280
tp1281
Rp1282
ag13
(g17
S'\x00\x00\x00\x00\x00`y@'
p1283
tp1284
Rp1285
ag13
(g17
S'\x8f\xb9DxR\x90>@'
p1286
tp1287
Rp1288
aI0
aI0
aI0
aI0
aI0
aa(lp1289
I00
aI00
a(lp1290
(lp1291
(lp1292
F140.0
aF406.0
aa(lp1293
F0.0
aF0.0
aa(lp1294
F0.0
aF0.0
aa(lp1295
F0.0
aF0.0
aaa(lp1296
(lp1297
F736.0
aF406.0
aa(lp1298
F0.0
aF0.0
aa(lp1299
F0.0
aF0.0
aa(lp1300
F0.0
aF0.0
aaaag13
(g17
S'\x00\x00\x00\x00\x00\x80a@'
p1301
tp1302
Rp1303
ag13
(g17
S'\x00\x00\x00\x00\x00\x00\x87@'
p1304
tp1305
Rp1306
ag13
(g17
S'\x00\x00\x00\x00\x00`y@'
p1307
tp1308
Rp1309
ag13
(g17
S'\x00\x00\x00\x00\x00`y@'
p1310
tp1311
Rp1312
ag13
(g17
S'\x8f\xb9DxR\x90>@'
p1313
tp1314
Rp1315
aI0
aI0
aI0
aI0
aI0
aa(lp1316
I00
aI00
a(lp1317
(lp1318
(lp1319
F140.0
aF406.0
aa(lp1320
F0.0
aF0.0
aa(lp1321
F0.0
aF0.0
aa(lp1322
F0.0
aF0.0
aaa(lp1323
(lp1324
F736.0
aF406.0
aa(lp1325
F0.0
aF0.0
aa(lp1326
F0.0
aF0.0
aa(lp1327
F0.0
aF0.0
aaaag13
(g17
S'\x00\x00\x00\x00\x00\x80a@'
p1328
tp1329
Rp1330
ag13
(g17
S'\x00\x00\x00\x00\x00\x00\x87@'
p1331
tp1332
Rp1333
ag13
(g17
S'\x00\x00\x00\x00\x00`y@'
p1334
tp1335
Rp1336
ag13
(g17
S'\x00\x00\x00\x00\x00`y@'
p1337
tp1338
Rp1339
ag13
(g17
S'\x8f\xb9DxR\x90>@'
p1340
tp1341
Rp1342
aI0
aI0
aI0
aI0
aI0
aa(lp1343
I00
aI00
a(lp1344
(lp1345
(lp1346
F140.0
aF406.0
aa(lp1347
F0.0
aF0.0
aa(lp1348
F0.0
aF0.0
aa(lp1349
F0.0
aF0.0
aaag1323
aag13
(g17
S'\x00\x00\x00\x00\x00\x80a@'
p1350
tp1351
Rp1352
ag13
(g17
S'\x00\x00\x00\x00\x00\x00\x87@'
p1353
tp1354
Rp1355
ag13
(g17
S'\x00\x00\x00\x00\x00`y@'
p1356
tp1357
Rp1358
ag13
(g17
S'\x00\x00\x00\x00\x00`y@'
p1359
tp1360
Rp1361
ag13
(g17
S'\x8f\xb9DxR\x90>@'
p1362
tp1363
Rp1364
aI0
aI0
aI0
aI0
aI0
aa(lp1365
I00
aI00
a(lp1366
(lp1367
(lp1368
F140.0
aF406.0
aa(lp1369
F0.0
aF0.0
aa(lp1370
F0.0
aF0.0
aa(lp1371
F0.0
aF0.0
aaa(lp1372
(lp1373
F736.0
aF406.0
aa(lp1374
F0.0
aF0.0
aa(lp1375
F0.0
aF0.0
aa(lp1376
F0.0
aF0.0
aaaag13
(g17
S'\x00\x00\x00\x00\x00\x80a@'
p1377
tp1378
Rp1379
ag13
(g17
S'\x00\x00\x00\x00\x00\x00\x87@'
p1380
tp1381
Rp1382
ag13
(g17
S'\x00\x00\x00\x00\x00`y@'
p1383
tp1384
Rp1385
ag13
(g17
S'\x00\x00\x00\x00\x00`y@'
p1386
tp1387
Rp1388
ag13
(g17
S'\x8f\xb9DxR\x90>@'
p1389
tp1390
Rp1391
aI0
aI0
aI0
aI0
aI0
aa(lp1392
I00
aI00
a(lp1393
(lp1394
(lp1395
F140.0
aF406.0
aa(lp1396
F0.0
aF0.0
aa(lp1397
F0.0
aF0.0
aa(lp1398
F0.0
aF0.0
aaag1372
aag13
(g17
S'\x00\x00\x00\x00\x00\x80a@'
p1399
tp1400
Rp1401
ag13
(g17
S'\x00\x00\x00\x00\x00\x00\x87@'
p1402
tp1403
Rp1404
ag13
(g17
S'\x00\x00\x00\x00\x00`y@'
p1405
tp1406
Rp1407
ag13
(g17
S'\x00\x00\x00\x00\x00`y@'
p1408
tp1409
Rp1410
ag13
(g17
S'\x8f\xb9DxR\x90>@'
p1411
tp1412
Rp1413
aI0
aI0
aI0
aI0
aI0
aa(lp1414
I00
aI00
a(lp1415
(lp1416
(lp1417
F140.0
aF405.0
aa(lp1418
F0.0
aF0.0
aa(lp1419
F0.0
aF0.0
aa(lp1420
F0.0
aF0.0
aaa(lp1421
(lp1422
F736.0
aF406.0
aa(lp1423
F0.0
aF0.0
aa(lp1424
F0.0
aF0.0
aa(lp1425
F0.0
aF0.0
aaaag13
(g17
S'\x00\x00\x00\x00\x00\x80a@'
p1426
tp1427
Rp1428
ag13
(g17
S'\x00\x00\x00\x00\x00\x00\x87@'
p1429
tp1430
Rp1431
ag13
(g17
S'\x00\x00\x00\x00\x00`y@'
p1432
tp1433
Rp1434
ag13
(g17
S'\x00\x00\x00\x00\x00`y@'
p1435
tp1436
Rp1437
ag13
(g17
S'\x8f\xb9DxR\x90>@'
p1438
tp1439
Rp1440
aI0
aI0
aI0
aI0
aI0
aa(lp1441
I00
aI00
a(lp1442
(lp1443
(lp1444
F140.0
aF406.0
aa(lp1445
F0.0
aF0.0
aa(lp1446
F0.0
aF0.0
aa(lp1447
F0.0
aF0.0
aaa(lp1448
(lp1449
F736.0
aF406.0
aa(lp1450
F0.0
aF0.0
aa(lp1451
F0.0
aF0.0
aa(lp1452
F0.0
aF0.0
aaaag13
(g17
S'\x00\x00\x00\x00\x00\x80a@'
p1453
tp1454
Rp1455
ag13
(g17
S'\x00\x00\x00\x00\x00\x00\x87@'
p1456
tp1457
Rp1458
ag13
(g17
S'\x00\x00\x00\x00\x00`y@'
p1459
tp1460
Rp1461
ag13
(g17
S'\x00\x00\x00\x00\x00`y@'
p1462
tp1463
Rp1464
ag13
(g17
S'\x8f\xb9DxR\x90>@'
p1465
tp1466
Rp1467
aI0
aI0
aI0
aI0
aI0
aa(lp1468
I00
aI00
a(lp1469
(lp1470
(lp1471
F140.0
aF405.0
aa(lp1472
F0.0
aF0.0
aa(lp1473
F0.0
aF0.0
aa(lp1474
F0.0
aF0.0
aaa(lp1475
(lp1476
F736.0
aF406.0
aa(lp1477
F0.0
aF0.0
aa(lp1478
F0.0
aF0.0
aa(lp1479
F0.0
aF0.0
aaaag13
(g17
S'\x00\x00\x00\x00\x00\x80a@'
p1480
tp1481
Rp1482
ag13
(g17
S'\x00\x00\x00\x00\x00\x00\x87@'
p1483
tp1484
Rp1485
ag13
(g17
S'\x15EY}\xf2_y@'
p1486
tp1487
Rp1488
ag13
(g17
S'\x00\x00\x00\x00\x00`y@'
p1489
tp1490
Rp1491
ag13
(g17
S'\xee\xb6BxR\x90>@'
p1492
tp1493
Rp1494
aI0
aI0
aI0
aI0
aI0
aa(lp1495
I00
aI00
a(lp1496
(lp1497
(lp1498
F140.0
aF405.0
aa(lp1499
F0.0
aF0.0
aa(lp1500
F0.0
aF0.0
aa(lp1501
F0.0
aF0.0
aaa(lp1502
(lp1503
F736.0
aF406.0
aa(lp1504
F0.0
aF0.0
aa(lp1505
F0.0
aF0.0
aa(lp1506
F0.0
aF0.0
aaaag13
(g17
S'\x00\x00\x00\x00\x00\x80a@'
p1507
tp1508
Rp1509
ag13
(g17
S'\x00\x00\x00\x00\x00\x00\x87@'
p1510
tp1511
Rp1512
ag13
(g17
S'r.\x82\xfd\xc0_y@'
p1513
tp1514
Rp1515
ag13
(g17
S'\x00\x00\x00\x00\x00`y@'
p1516
tp1517
Rp1518
ag13
(g17
S'\xb5\xff\x18xR\x90>@'
p1519
tp1520
Rp1521
aI0
aI0
aI0
aI0
aI0
aa(lp1522
I00
aI00
a(lp1523
(lp1524
(lp1525
F140.0
aF406.0
aa(lp1526
F0.0
aF0.0
aa(lp1527
F0.0
aF0.0
aa(lp1528
F0.0
aF0.0
aaa(lp1529
(lp1530
F736.0
aF406.0
aa(lp1531
F0.0
aF0.0
aa(lp1532
F0.0
aF0.0
aa(lp1533
F0.0
aF0.0
aaaag13
(g17
S'\x00\x00\x00\x00\x00\x80a@'
p1534
tp1535
Rp1536
ag13
(g17
S'\x00\x00\x00\x00\x00\x00\x87@'
p1537
tp1538
Rp1539
ag13
(g17
S'\xa7N\x96\xa1M_y@'
p1540
tp1541
Rp1542
ag13
(g17
S'\x00\x00\x00\x00\x00`y@'
p1543
tp1544
Rp1545
ag13
(g17
S'\x98S\xe6vR\x90>@'
p1546
tp1547
Rp1548
aI0
aI0
aI0
aI0
aI0
aa(lp1549
I00
aI00
a(lp1550
(lp1551
(lp1552
F140.0
aF405.0
aa(lp1553
F0.0
aF0.0
aa(lp1554
F0.0
aF0.0
aa(lp1555
F0.0
aF0.0
aaa(lp1556
(lp1557
F736.0
aF406.0
aa(lp1558
F0.0
aF0.0
aa(lp1559
F0.0
aF0.0
aa(lp1560
F0.0
aF0.0
aaaag13
(g17
S'\x00\x00\x00\x00\x00\x80a@'
p1561
tp1562
Rp1563
ag13
(g17
S'\x00\x00\x00\x00\x00\x00\x87@'
p1564
tp1565
Rp1566
ag13
(g17
S'\xf8\xa0\x1a\x9ds^y@'
p1567
tp1568
Rp1569
ag13
(g17
S'\x00\x00\x00\x00\x00`y@'
p1570
tp1571
Rp1572
ag13
(g17
S'\xdeC\x82qR\x90>@'
p1573
tp1574
Rp1575
aI0
aI0
aI0
aI0
aI0
aa(lp1576
I00
aI00
a(lp1577
(lp1578
(lp1579
F140.0
aF405.0
aa(lp1580
F0.0
aF0.0
aa(lp1581
F0.0
aF0.0
aa(lp1582
F0.0
aF0.0
aaa(lp1583
(lp1584
F736.0
aF406.0
aa(lp1585
F0.0
aF0.0
aa(lp1586
F0.0
aF0.0
aa(lp1587
F0.0
aF0.0
aaaag13
(g17
S'\x00\x00\x00\x00\x00\x80a@'
p1588
tp1589
Rp1590
ag13
(g17
S'\x00\x00\x00\x00\x00\x00\x87@'
p1591
tp1592
Rp1593
ag13
(g17
S'\x17!\xc9\xcc*]y@'
p1594
tp1595
Rp1596
ag13
(g17
S'\x00\x00\x00\x00\x00`y@'
p1597
tp1598
Rp1599
ag13
(g17
S'\x08\x93\xa4aR\x90>@'
p1600
tp1601
Rp1602
aI0
aI0
aI0
aI0
aI0
aa(lp1603
I00
aI00
a(lp1604
(lp1605
(lp1606
F140.0
aF405.0
aa(lp1607
F0.0
aF0.0
aa(lp1608
F0.0
aF0.0
aa(lp1609
F0.0
aF0.0
aaa(lp1610
(lp1611
F736.0
aF406.0
aa(lp1612
F0.0
aF0.0
aa(lp1613
F0.0
aF0.0
aa(lp1614
F0.0
aF0.0
aaaag13
(g17
S'\x00\x00\x00\x00\x00\x80a@'
p1615
tp1616
Rp1617
ag13
(g17
S'\x00\x00\x00\x00\x00\x00\x87@'
p1618
tp1619
Rp1620
ag13
(g17
S'6 \x14\xa4\x8c[y@'
p1621
tp1622
Rp1623
ag13
(g17
S'\x00\x00\x00\x00\x00`y@'
p1624
tp1625
Rp1626
ag13
(g17
S'\xcd\xb5k@R\x90>@'
p1627
tp1628
Rp1629
aI0
aI0
aI0
aI0
aI0
aa(lp1630
I00
aI00
a(lp1631
(lp1632
(lp1633
F140.0
aF405.0
aa(lp1634
F0.0
aF0.0
aa(lp1635
F0.0
aF0.0
aa(lp1636
F0.0
aF0.0
aaa(lp1637
(lp1638
F736.0
aF406.0
aa(lp1639
F0.0
aF0.0
aa(lp1640
F0.0
aF0.0
aa(lp1641
F0.0
aF0.0
aaaag13
(g17
S'\x00\x00\x00\x00\x00\x80a@'
p1642
tp1643
Rp1644
ag13
(g17
S'\x00\x00\x00\x00\x00\x00\x87@'
p1645
tp1646
Rp1647
ag13
(g17
S'\x96\x1a\xe4\xae\xc9Yy@'
p1648
tp1649
Rp1650
ag13
(g17
S'\x00\x00\x00\x00\x00`y@'
p1651
tp1652
Rp1653
ag13
(g17
S'\x02{v\x0bR\x90>@'
p1654
tp1655
Rp1656
aI0
aI0
aI0
aI0
aI0
aa(lp1657
I00
aI00
a(lp1658
(lp1659
(lp1660
F140.0
aF405.0
aa(lp1661
F0.0
aF0.0
aa(lp1662
F0.0
aF0.0
aa(lp1663
F0.0
aF0.0
aaa(lp1664
(lp1665
F736.0
aF406.0
aa(lp1666
F0.0
aF0.0
aa(lp1667
F0.0
aF0.0
aa(lp1668
F0.0
aF0.0
aaaag13
(g17
S'\x00\x00\x00\x00\x00\x80a@'
p1669
tp1670
Rp1671
ag13
(g17
S'\x00\x00\x00\x00\x00\x00\x87@'
p1672
tp1673
Rp1674
ag13
(g17
S'h\xae\x9f\n\x1bXy@'
p1675
tp1676
Rp1677
ag13
(g17
S'\x00\x00\x00\x00\x00`y@'
p1678
tp1679
Rp1680
ag13
(g17
S'*\xb9\x8e\xc8Q\x90>@'
p1681
tp1682
Rp1683
aI0
aI0
aI0
aI0
aI0
aa(lp1684
I00
aI00
a(lp1685
(lp1686
(lp1687
F140.0
aF405.0
aa(lp1688
F0.0
aF0.0
aa(lp1689
F0.0
aF0.0
aa(lp1690
F0.0
aF0.0
aaa(lp1691
(lp1692
F736.0
aF406.0
aa(lp1693
F0.0
aF0.0
aa(lp1694
F0.0
aF0.0
aa(lp1695
F0.0
aF0.0
aaaag13
(g17
S'\x00\x00\x00\x00\x00\x80a@'
p1696
tp1697
Rp1698
ag13
(g17
S'\x00\x00\x00\x00\x00\x00\x87@'
p1699
tp1700
Rp1701
ag13
(g17
S'F\xc8_\xb3\xa3Vy@'
p1702
tp1703
Rp1704
ag13
(g17
S'\x00\x00\x00\x00\x00`y@'
p1705
tp1706
Rp1707
ag13
(g17
S'\xa2\xa9:\x81Q\x90>@'
p1708
tp1709
Rp1710
aI0
aI0
aI0
aI0
aI0
aa(lp1711
I00
aI00
a(lp1712
(lp1713
(lp1714
F140.0
aF405.0
aa(lp1715
F0.0
aF0.0
aa(lp1716
F0.0
aF0.0
aa(lp1717
F0.0
aF0.0
aaa(lp1718
(lp1719
F736.0
aF406.0
aa(lp1720
F0.0
aF0.0
aa(lp1721
F0.0
aF0.0
aa(lp1722
F0.0
aF0.0
aaaag13
(g17
S'\x00\x00\x00\x00\x00\x80a@'
p1723
tp1724
Rp1725
ag13
(g17
S'\x00\x00\x00\x00\x00\x00\x87@'
p1726
tp1727
Rp1728
ag13
(g17
S'\xb7\xf5\x9e\xd5cUy@'
p1729
tp1730
Rp1731
ag13
(g17
S'\x00\x00\x00\x00\x00`y@'
p1732
tp1733
Rp1734
ag13
(g17
S'lO\xe0:Q\x90>@'
p1735
tp1736
Rp1737
aI0
aI0
aI0
aI0
aI0
aa(lp1738
I00
aI00
a(lp1739
(lp1740
(lp1741
F140.0
aF405.0
aa(lp1742
F0.0
aF0.0
aa(lp1743
F0.0
aF0.0
aa(lp1744
F0.0
aF0.0
aaa(lp1745
(lp1746
F736.0
aF406.0
aa(lp1747
F0.0
aF0.0
aa(lp1748
F0.0
aF0.0
aa(lp1749
F0.0
aF0.0
aaaag13
(g17
S'\x00\x00\x00\x00\x00\x80a@'
p1750
tp1751
Rp1752
ag13
(g17
S'\x00\x00\x00\x00\x00\x00\x87@'
p1753
tp1754
Rp1755
ag13
(g17
S'~\xce%\xfcDTy@'
p1756
tp1757
Rp1758
ag13
(g17
S'\x00\x00\x00\x00\x00`y@'
p1759
tp1760
Rp1761
ag13
(g17
S';CL\xf4P\x90>@'
p1762
tp1763
Rp1764
aI0
aI0
aI0
aI0
aI0
aa(lp1765
I00
aI00
a(lp1766
(lp1767
(lp1768
F140.0
aF405.0
aa(lp1769
F0.0
aF0.0
aa(lp1770
F0.0
aF0.0
aa(lp1771
F0.0
aF0.0
aaa(lp1772
(lp1773
F736.0
aF406.0
aa(lp1774
F0.0
aF0.0
aa(lp1775
F0.0
aF0.0
aa(lp1776
F0.0
aF0.0
aaaag13
(g17
S'\x00\x00\x00\x00\x00\x80a@'
p1777
tp1778
Rp1779
ag13
(g17
S'\x00\x00\x00\x00\x00\x00\x87@'
p1780
tp1781
Rp1782
ag13
(g17
S';\r+~3Sy@'
p1783
tp1784
Rp1785
ag13
(g17
S'\x00\x00\x00\x00\x00`y@'
p1786
tp1787
Rp1788
ag13
(g17
S'\x01\xc7i\xaaP\x90>@'
p1789
tp1790
Rp1791
aI0
aI0
aI0
aI0
aI0
aa(lp1792
I00
aI00
a(lp1793
(lp1794
(lp1795
F140.0
aF405.0
aa(lp1796
F0.0
aF0.0
aa(lp1797
F0.0
aF0.0
aa(lp1798
F0.0
aF0.0
aaa(lp1799
(lp1800
F736.0
aF406.0
aa(lp1801
F0.0
aF0.0
aa(lp1802
F0.0
aF0.0
aa(lp1803
F0.0
aF0.0
aaaag13
(g17
S'\x00\x00\x00\x00\x00\x80a@'
p1804
tp1805
Rp1806
ag13
(g17
S'\x00\x00\x00\x00\x00\x00\x87@'
p1807
tp1808
Rp1809
ag13
(g17
S'|\xe8sW0Ry@'
p1810
tp1811
Rp1812
ag13
(g17
S'\x00\x00\x00\x00\x00`y@'
p1813
tp1814
Rp1815
ag13
(g17
S'f\xdcv^P\x90>@'
p1816
tp1817
Rp1818
aI0
aI0
aI0
aI0
aI0
aa(lp1819
I00
aI00
a(lp1820
(lp1821
(lp1822
F139.0
aF405.0
aa(lp1823
F0.0
aF0.0
aa(lp1824
F0.0
aF0.0
aa(lp1825
F0.0
aF0.0
aaa(lp1826
(lp1827
F736.0
aF406.0
aa(lp1828
F0.0
aF0.0
aa(lp1829
F0.0
aF0.0
aa(lp1830
F0.0
aF0.0
aaaag13
(g17
S'\x00\x00\x00\x00\x00\x80a@'
p1831
tp1832
Rp1833
ag13
(g17
S'\x00\x00\x00\x00\x00\x00\x87@'
p1834
tp1835
Rp1836
ag13
(g17
S'z\x8dg`MQy@'
p1837
tp1838
Rp1839
ag13
(g17
S'\x00\x00\x00\x00\x00`y@'
p1840
tp1841
Rp1842
ag13
(g17
S'\x16\x9b3\x17P\x90>@'
p1843
tp1844
Rp1845
aI0
aI0
aI0
aI0
aI0
aa(lp1846
I00
aI00
a(lp1847
(lp1848
(lp1849
F139.0
aF405.0
aa(lp1850
F0.0
aF0.0
aa(lp1851
F0.0
aF0.0
aa(lp1852
F0.0
aF0.0
aaa(lp1853
(lp1854
F736.0
aF406.0
aa(lp1855
F0.0
aF0.0
aa(lp1856
F0.0
aF0.0
aa(lp1857
F0.0
aF0.0
aaaag13
(g17
S'\x00\x00\x00\x00\x00\x80a@'
p1858
tp1859
Rp1860
ag13
(g17
S'\x00\x00\x00\x00\x00\x00\x87@'
p1861
tp1862
Rp1863
ag13
(g17
S'n\xf6\xc2\xdb\xa4Py@'
p1864
tp1865
Rp1866
ag13
(g17
S'\x00\x00\x00\x00\x00`y@'
p1867
tp1868
Rp1869
ag13
(g17
S'\xe3Cl\xdfO\x90>@'
p1870
tp1871
Rp1872
aI0
aI0
aI0
aI0
aI0
aa(lp1873
I00
aI00
a(lp1874
(lp1875
(lp1876
F138.0
aF405.0
aa(lp1877
F0.0
aF0.0
aa(lp1878
F0.0
aF0.0
aa(lp1879
F0.0
aF0.0
aaa(lp1880
(lp1881
F735.0
aF406.0
aa(lp1882
F0.0
aF0.0
aa(lp1883
F0.0
aF0.0
aa(lp1884
F0.0
aF0.0
aaaag13
(g17
S'*\x8a\xb2\xfa\xe4\x7fa@'
p1885
tp1886
Rp1887
ag13
(g17
S'\x00\x00\x00\x00\x00\x00\x87@'
p1888
tp1889
Rp1890
ag13
(g17
S'\x8f\xd1}\x02?Py@'
p1891
tp1892
Rp1893
ag13
(g17
S'\x00\x00\x00\x00\x00`y@'
p1894
tp1895
Rp1896
ag13
(g17
S'\xee\xe8\xb7\xa6D\x90>@'
p1897
tp1898
Rp1899
aI0
aI0
aI0
aI0
aI0
aa(lp1900
I00
aI00
a(lp1901
(lp1902
(lp1903
F138.0
aF404.0
aa(lp1904
F0.0
aF0.0
aa(lp1905
F0.0
aF0.0
aa(lp1906
F0.0
aF0.0
aaa(lp1907
(lp1908
F735.0
aF406.0
aa(lp1909
F0.0
aF0.0
aa(lp1910
F0.0
aF0.0
aa(lp1911
F0.0
aF0.0
aaaag13
(g17
S'\r\xe7\xb6\xf5f\x7fa@'
p1912
tp1913
Rp1914
ag13
(g17
S'\x00\x00\x00\x00\x00\x00\x87@'
p1915
tp1916
Rp1917
ag13
(g17
S'\xeb\xba\xa6\x82\rPy@'
p1918
tp1919
Rp1920
ag13
(g17
S'\x00\x00\x00\x00\x00`y@'
p1921
tp1922
Rp1923
ag13
(g17
S'%\xab\xda\xe2\x10\x90>@'
p1924
tp1925
Rp1926
aI0
aI0
aI0
aI0
aI0
aa(lp1927
I00
aI00
a(lp1928
(lp1929
(lp1930
F137.0
aF404.0
aa(lp1931
F0.0
aF0.0
aa(lp1932
F0.0
aF0.0
aa(lp1933
F0.0
aF0.0
aaa(lp1934
(lp1935
F735.0
aF406.0
aa(lp1936
F0.0
aF0.0
aa(lp1937
F0.0
aF0.0
aa(lp1938
F0.0
aF0.0
aaaag13
(g17
S'[\x84\xe38\x02~a@'
p1939
tp1940
Rp1941
ag13
(g17
S'\x8b\xa2\xac>\xf9\xff\x86@'
p1942
tp1943
Rp1944
ag13
(g17
S'\x00\x00\x00\x00\x00Py@'
p1945
tp1946
Rp1947
ag13
(g17
S'\x00\x00\x00\x00\x00`y@'
p1948
tp1949
Rp1950
ag13
(g17
S'{(k\x9e\x89\x8f>@'
p1951
tp1952
Rp1953
aI0
aI0
aI0
aI0
aI0
aa(lp1954
I00
aI00
a(lp1955
(lp1956
(lp1957
F135.0
aF404.0
aa(lp1958
F0.0
aF0.0
aa(lp1959
F0.0
aF0.0
aa(lp1960
F0.0
aF0.0
aaa(lp1961
(lp1962
F733.0
aF405.0
aa(lp1963
F0.0
aF0.0
aa(lp1964
F0.0
aF0.0
aa(lp1965
F0.0
aF0.0
aaaag13
(g17
S' <fx\x04{a@'
p1966
tp1967
Rp1968
ag13
(g17
S'\xc4\xb9m\xbd\xd9\xff\x86@'
p1969
tp1970
Rp1971
ag13
(g17
S'\x15EY}\xf2Oy@'
p1972
tp1973
Rp1974
ag13
(g17
S'\x00\x00\x00\x00\x00`y@'
p1975
tp1976
Rp1977
ag13
(g17
S'\xbapw<\x83\x8e>@'
p1978
tp1979
Rp1980
aI0
aI0
aI0
aI0
aI0
aa(lp1981
I00
aI00
a(lp1982
(lp1983
(lp1984
F133.0
aF405.0
aa(lp1985
F0.0
aF0.0
aa(lp1986
F0.0
aF0.0
aa(lp1987
F0.0
aF0.0
aaa(lp1988
(lp1989
F730.0
aF406.0
aa(lp1990
F0.0
aF0.0
aa(lp1991
F0.0
aF0.0
aa(lp1992
F0.0
aF0.0
aaaag13
(g17
S'\x95\xab\xa6\x11\xbdua@'
p1993
tp1994
Rp1995
ag13
(g17
S'\x8d>\x8cO\x87\xff\x86@'
p1996
tp1997
Rp1998
ag13
(g17
S'\x87s\xdbz\xb3Oy@'
p1999
tp2000
Rp2001
ag13
(g17
S'\x00\x00\x00\x00\x00`y@'
p2002
tp2003
Rp2004
ag13
(g17
S'\x03\xbaeH\xe0\x8c>@'
p2005
tp2006
Rp2007
aI0
aI0
aI0
aI0
aI0
aa(lp2008
I00
aI00
a(lp2009
(lp2010
(lp2011
F129.0
aF405.0
aa(lp2012
F0.0
aF0.0
aa(lp2013
F0.0
aF0.0
aa(lp2014
F0.0
aF0.0
aaa(lp2015
(lp2016
F728.0
aF406.0
aa(lp2017
F0.0
aF0.0
aa(lp2018
F0.0
aF0.0
aa(lp2019
F0.0
aF0.0
aaaag13
(g17
S'\xe9\xbf\x0b\x07\x87ma@'
p2020
tp2021
Rp2022
ag13
(g17
S'Z\x1a\x05\xde\xd9\xfe\x86@'
p2023
tp2024
Rp2025
ag13
(g17
S'\x19}\x18\x9f\x0eOy@'
p2026
tp2027
Rp2028
ag13
(g17
S'\x15EY}\xf2_y@'
p2029
tp2030
Rp2031
ag13
(g17
S'\x05\xf6\xb7\xff\x9e\x8a>@'
p2032
tp2033
Rp2034
aI0
aI0
aI0
aI0
aI0
aa(lp2035
I00
aI00
a(lp2036
(lp2037
(lp2038
F125.0
aF405.0
aa(lp2039
F0.0
aF0.0
aa(lp2040
F0.0
aF0.0
aa(lp2041
F0.0
aF0.0
aaa(lp2042
(lp2043
F725.0
aF406.0
aa(lp2044
F0.0
aF0.0
aa(lp2045
F0.0
aF0.0
aa(lp2046
F0.0
aF0.0
aaaag13
(g17
S'd\x94\x86^\xb7aa@'
p2047
tp2048
Rp2049
ag13
(g17
S'\xf5$\x12\xed\x8d\xfd\x86@'
p2050
tp2051
Rp2052
ag13
(g17
S'ue\xfeC\xdcMy@'
p2053
tp2054
Rp2055
ag13
(g17
S'r.\x82\xfd\xc0_y@'
p2056
tp2057
Rp2058
ag13
(g17
S'\t\xfb\xca \xe8\x87>@'
p2059
tp2060
Rp2061
aI0
aI0
aI0
aI0
aI0
aa(lp2062
I00
aI00
a(lp2063
(lp2064
(lp2065
F120.0
aF405.0
aa(lp2066
F0.0
aF0.0
aa(lp2067
F0.0
aF0.0
aa(lp2068
F0.0
aF0.0
aaa(lp2069
(lp2070
F721.0
aF407.0
aa(lp2071
F0.0
aF0.0
aa(lp2072
F0.0
aF0.0
aa(lp2073
F0.0
aF0.0
aaaag13
(g17
S's\x88\xc6\x957Qa@'
p2074
tp2075
Rp2076
ag13
(g17
S'U\x0b\x0b{<\xfb\x86@'
p2077
tp2078
Rp2079
ag13
(g17
S'\x16 \x86\xf1)Ly@'
p2080
tp2081
Rp2082
ag13
(g17
S'\x92\t=$[_y@'
p2083
tp2084
Rp2085
ag13
(g17
S'\xce\xd2~\x8d\xf2\x84>@'
p2086
tp2087
Rp2088
aI0
aI0
aI0
aI0
aI0
aa(lp2089
I00
aI00
a(lp2090
(lp2091
(lp2092
F115.0
aF406.0
aa(lp2093
F0.0
aF0.0
aa(lp2094
F0.0
aF0.0
aa(lp2095
F0.0
aF0.0
aaa(lp2096
(lp2097
F719.0
aF407.0
aa(lp2098
F0.0
aF0.0
aa(lp2099
F0.0
aF0.0
aa(lp2100
F0.0
aF0.0
aaaag13
(g17
S'\x16\xc69\x00\n:a@'
p2101
tp2102
Rp2103
ag13
(g17
S'w\xa5\x8d\xc0U\xf7\x86@'
p2104
tp2105
Rp2106
ag13
(g17
S'\xa2\xba\x87\xadMJy@'
p2107
tp2108
Rp2109
ag13
(g17
S'q-?"\xc0^y@'
p2110
tp2111
Rp2112
ag13
(g17
S'\xfdR\xa9J\xd9\x81>@'
p2113
tp2114
Rp2115
aI0
aI0
aI0
aI0
aI0
aa(lp2116
I00
aI00
a(lp2117
(lp2118
(lp2119
F109.0
aF407.0
aa(lp2120
F0.0
aF0.0
aa(lp2121
F0.0
aF0.0
aa(lp2122
F0.0
aF0.0
aaa(lp2123
(lp2124
F715.0
aF408.0
aa(lp2125
F0.0
aF0.0
aa(lp2126
F0.0
aF0.0
aa(lp2127
F0.0
aF0.0
aaaag13
(g17
S'm~M\xee\x1a\x19a@'
p2128
tp2129
Rp2130
ag13
(g17
S')~H\xaa%\xf1\x86@'
p2131
tp2132
Rp2133
ag13
(g17
S'\xbd\x1d\x08\xf2\xd4Hy@'
p2134
tp2135
Rp2136
ag13
(g17
S'\xfe\xa3\xb0-\x1c^y@'
p2137
tp2138
Rp2139
ag13
(g17
S'#\xed\xf7\x17\x81~>@'
p2140
tp2141
Rp2142
aI0
aI0
aI0
aI0
aI0
aa(lp2143
I00
aI00
a(lp2144
(lp2145
(lp2146
F104.0
aF409.0
aa(lp2147
F0.0
aF0.0
aa(lp2148
F0.0
aF0.0
aa(lp2149
F0.0
aF0.0
aaa(lp2150
(lp2151
F712.0
aF409.0
aa(lp2152
F0.0
aF0.0
aa(lp2153
F0.0
aF0.0
aa(lp2154
F0.0
aF0.0
aaaag13
(g17
S'\xeb\xf4\xf0\x87\x90\xea`@'
p2155
tp2156
Rp2157
ag13
(g17
S'1R\x931\xff\xe7\x86@'
p2158
tp2159
Rp2160
ag13
(g17
S'\xb2\x93\xe3\xa9RHy@'
p2161
tp2162
Rp2163
ag13
(g17
S'\x980ce\xcb]y@'
p2164
tp2165
Rp2166
ag13
(g17
S'\xb9?Rgrz>@'
p2167
tp2168
Rp2169
aI0
aI0
aI0
aI0
aI0
aa(lp2170
I00
aI00
a(lp2171
(lp2172
(lp2173
F99.0
aF410.0
aa(lp2174
F0.0
aF0.0
aa(lp2175
F0.0
aF0.0
aa(lp2176
F0.0
aF0.0
aaa(lp2177
(lp2178
F711.0
aF412.0
aa(lp2179
F0.0
aF0.0
aa(lp2180
F0.0
aF0.0
aa(lp2181
F0.0
aF0.0
aaaag13
(g17
S'\xcf\xe8\xd9?\x97\xaa`@'
p2182
tp2183
Rp2184
ag13
(g17
S'\x9e\xe8\xe7\x18p\xdb\x86@'
p2185
tp2186
Rp2187
ag13
(g17
S'!e\xd3\xf9.Iy@'
p2188
tp2189
Rp2190
ag13
(g17
S'^\xceMJF^y@'
p2191
tp2192
Rp2193
ag13
(g17
S'\xd9\xc7c\xdb\xd8t>@'
p2194
tp2195
Rp2196
aI0
aI0
aI0
aI0
aI0
aa(lp2197
I00
aI00
a(lp2198
(lp2199
(lp2200
F95.0
aF412.0
aa(lp2201
F0.0
aF0.0
aa(lp2202
F0.0
aF0.0
aa(lp2203
F0.0
aF0.0
aaa(lp2204
(lp2205
F711.0
aF415.0
aa(lp2206
F0.0
aF0.0
aa(lp2207
F0.0
aF0.0
aa(lp2208
F0.0
aF0.0
aaaag13
(g17
S'\xb0\x9a\xc8\xd7jV`@'
p2209
tp2210
Rp2211
ag13
(g17
S'\x06\x95\xf7\xa5e\xcb\x86@'
p2212
tp2213
Rp2214
ag13
(g17
S'\xd9?\xe1\x98\xa6Ky@'
p2215
tp2216
Rp2217
ag13
(g17
S'\xf9@\xb2&\n`y@'
p2218
tp2219
Rp2220
ag13
(g17
S'\xd3\x1d\xf8\x87\xb4l>@'
p2221
tp2222
Rp2223
aI0
aI0
aI0
aI0
aI0
aa(lp2224
I00
aI00
a(lp2225
(lp2226
(lp2227
F92.0
aF415.0
aa(lp2228
F0.0
aF0.0
aa(lp2229
F0.0
aF0.0
aa(lp2230
F0.0
aF0.0
aaa(lp2231
(lp2232
F710.0
aF416.0
aa(lp2233
F0.0
aF0.0
aa(lp2234
F0.0
aF0.0
aa(lp2235
F0.0
aF0.0
aaaag13
(g17
S'\x86\x07R\x01d\xda_@'
p2236
tp2237
Rp2238
ag13
(g17
S"'\r\xfbRG\xb8\x86@"
p2239
tp2240
Rp2241
ag13
(g17
S'S\xcc\x05\x1e\xf3Oy@'
p2242
tp2243
Rp2244
ag13
(g17
S'\x99\x95\xa8\xac\x97cy@'
p2245
tp2246
Rp2247
ag13
(g17
S'\r\xff\xb3\x80\ta>@'
p2248
tp2249
Rp2250
aI0
aI0
aI0
aI0
aI0
aa(lp2251
I00
aI00
a(lp2252
(lp2253
(lp2254
F90.0
aF416.0
aa(lp2255
F0.0
aF0.0
aa(lp2256
F0.0
aF0.0
aa(lp2257
F0.0
aF0.0
aaa(lp2258
(lp2259
F710.0
aF417.0
aa(lp2260
F0.0
aF0.0
aa(lp2261
F0.0
aF0.0
aa(lp2262
F0.0
aF0.0
aaaag13
(g17
S'\xd2<\xf3\xf1\xe1\xe0^@'
p2263
tp2264
Rp2265
ag13
(g17
S'r\xe9\xf5\x93\xf6\xa2\x86@'
p2266
tp2267
Rp2268
ag13
(g17
S'm/\x86bzVy@'
p2269
tp2270
Rp2271
ag13
(g17
S'B\xa4\x90\x8c\x94iy@'
p2272
tp2273
Rp2274
ag13
(g17
S'\xfcx\xfbw\x10Q>@'
p2275
tp2276
Rp2277
aI0
aI0
aI0
aI0
aI0
aa(lp2278
I00
aI00
a(lp2279
(lp2280
(lp2281
F88.0
aF418.0
aa(lp2282
F0.0
aF0.0
aa(lp2283
F0.0
aF0.0
aa(lp2284
F0.0
aF0.0
aaa(lp2285
(lp2286
F711.0
aF420.0
aa(lp2287
F0.0
aF0.0
aa(lp2288
F0.0
aF0.0
aa(lp2289
F0.0
aF0.0
aaaag13
(g17
S'\x0e\xe96\x9f\x05\xc8]@'
p2290
tp2291
Rp2292
ag13
(g17
S'D\x19\xf5\xee\xb0\x8c\x86@'
p2293
tp2294
Rp2295
ag13
(g17
S'J)\x8cV\xea_y@'
p2296
tp2297
Rp2298
ag13
(g17
S'5\xec\xeew\xd2ry@'
p2299
tp2300
Rp2301
ag13
(g17
S'*\x01WXe<>@'
p2302
tp2303
Rp2304
aI0
aI0
aI0
aI0
aI0
aa(lp2305
I00
aI00
a(lp2306
(lp2307
(lp2308
F88.0
aF420.0
aa(lp2309
F0.0
aF0.0
aa(lp2310
F0.0
aF0.0
aa(lp2311
F0.0
aF0.0
aaa(lp2312
(lp2313
F711.0
aF422.0
aa(lp2314
F0.0
aF0.0
aa(lp2315
F0.0
aF0.0
aa(lp2316
F0.0
aF0.0
aaaag13
(g17
S')WM#z\x9b\\@'
p2317
tp2318
Rp2319
ag13
(g17
S'\xaf\x8d\xca=\xeav\x86@'
p2320
tp2321
Rp2322
ag13
(g17
S'\xeb\x07\xa4\xb4\xffly@'
p2323
tp2324
Rp2325
ag13
(g17
S'6\xc7\\\x97&\x80y@'
p2326
tp2327
Rp2328
ag13
(g17
S'\xee\x17e\xd9\x1d#>@'
p2329
tp2330
Rp2331
aI0
aI0
aI0
aI0
aI0
aa(lp2332
I00
aI00
a(lp2333
(lp2334
(lp2335
F87.0
aF422.0
aa(lp2336
F0.0
aF0.0
aa(lp2337
F0.0
aF0.0
aa(lp2338
F0.0
aF0.0
aaa(lp2339
(lp2340
F712.0
aF423.0
aa(lp2341
F0.0
aF0.0
aa(lp2342
F0.0
aF0.0
aa(lp2343
F0.0
aF0.0
aaaag13
(g17
S'[\xe6\xe2t}i[@'
p2344
tp2345
Rp2346
ag13
(g17
S'yJ)\x8c\x1ec\x86@'
p2347
tp2348
Rp2349
ag13
(g17
S'NC2[4~y@'
p2350
tp2351
Rp2352
ag13
(g17
S'Nu\x85##\x92y@'
p2353
tp2354
Rp2355
ag13
(g17
S'J\xcf\x99#\xc9\x05>@'
p2356
tp2357
Rp2358
aI0
aI0
aI0
aI0
aI0
aa(lp2359
I00
aI00
a(lp2360
(lp2361
(lp2362
F86.0
aF424.0
aa(lp2363
F0.0
aF0.0
aa(lp2364
F0.0
aF0.0
aa(lp2365
F0.0
aF0.0
aaa(lp2366
(lp2367
F712.0
aF425.0
aa(lp2368
F0.0
aF0.0
aa(lp2369
F0.0
aF0.0
aa(lp2370
F0.0
aF0.0
aaaag13
(g17
S'%D\xa0p+AZ@'
p2371
tp2372
Rp2373
ag13
(g17
S'u\xa5\xaf\xc8\x8aR\x86@'
p2374
tp2375
Rp2376
ag13
(g17
S'\xbc`\r\xce\x86\x93y@'
p2377
tp2378
Rp2379
ag13
(g17
S'\x0c\xda_a\xbe\xa8y@'
p2380
tp2381
Rp2382
ag13
(g17
S'OP\x0b\xc1\x84\xe5=@'
p2383
tp2384
Rp2385
aI0
aI0
aI0
aI0
aI0
aa(lp2386
I00
aI00
a(lp2387
(lp2388
(lp2389
F86.0
aF426.0
aa(lp2390
F0.0
aF0.0
aa(lp2391
F0.0
aF0.0
aa(lp2392
F0.0
aF0.0
aaa(lp2393
(lp2394
F714.0
aF430.0
aa(lp2395
F0.0
aF0.0
aa(lp2396
F0.0
aF0.0
aa(lp2397
F0.0
aF0.0
aaaag13
(g17
S'\xf6\xba}f\xa40Y@'
p2398
tp2399
Rp2400
ag13
(g17
S'\x98\xce\x90\x0b\xf5E\x86@'
p2401
tp2402
Rp2403
ag13
(g17
S'ZF|\xb7k\xacy@'
p2404
tp2405
Rp2406
ag13
(g17
S'\x1b\xd0\x81*.\xc3y@'
p2407
tp2408
Rp2409
ag13
(g17
S'\xf2\xa0;\x87\xef\xc3=@'
p2410
tp2411
Rp2412
aI0
aI0
aI0
aI0
aI0
aa(lp2413
I00
aI00
a(lp2414
g2388
a(lp2415
(lp2416
F717.0
aF432.0
aa(lp2417
F0.0
aF0.0
aa(lp2418
F0.0
aF0.0
aa(lp2419
F0.0
aF0.0
aaaag13
(g17
S'H\xf38;\xbeBX@'
p2420
tp2421
Rp2422
ag13
(g17
S'WKC|\x92=\x86@'
p2423
tp2424
Rp2425
ag13
(g17
S'}M\xb9\x9e\xfc\xc7y@'
p2426
tp2427
Rp2428
ag13
(g17
S'\xe7\x0b\x07X!\xe0y@'
p2429
tp2430
Rp2431
ag13
(g17
S'\x01\xa8\x03C\xd8\xa2=@'
p2432
tp2433
Rp2434
aI0
aI0
aI0
aI0
aI0
aa(lp2435
I00
aI00
a(lp2436
(lp2437
(lp2438
F84.0
aF431.0
aa(lp2439
F0.0
aF0.0
aa(lp2440
F0.0
aF0.0
aa(lp2441
F0.0
aF0.0
aaag2415
aag13
(g17
S'\xc6\xf3\xf2\xf9\x9a}W@'
p2442
tp2443
Rp2444
ag13
(g17
S'\xa8\xd98\x94\x129\x86@'
p2445
tp2446
Rp2447
ag13
(g17
S'P\x0c\xb4\xdfC\xe5y@'
p2448
tp2449
Rp2450
ag13
(g17
S'\x9a\xdd\xbd\xd3^\xfey@'
p2451
tp2452
Rp2453
ag13
(g17
S'\xd4\xfb6G\xe4\x83=@'
p2454
tp2455
Rp2456
aI0
aI0
aI0
aI0
aI0
aa(lp2457
I00
aI00
a(lp2458
(lp2459
(lp2460
F84.0
aF432.0
aa(lp2461
F0.0
aF0.0
aa(lp2462
F0.0
aF0.0
aa(lp2463
F0.0
aF0.0
aaa(lp2464
(lp2465
F719.0
aF433.0
aa(lp2466
F0.0
aF0.0
aa(lp2467
F0.0
aF0.0
aa(lp2468
F0.0
aF0.0
aaaag13
(g17
S'4\xc4E\x90B\xe2V@'
p2469
tp2470
Rp2471
ag13
(g17
S'\xea\xf3i\t\xe37\x86@'
p2472
tp2473
Rp2474
ag13
(g17
S'\xdf#\x02\xfed\x03z@'
p2475
tp2476
Rp2477
ag13
(g17
S'\xec\xbb^\xb3U\x1dz@'
p2478
tp2479
Rp2480
ag13
(g17
S'r\x9a\xfcF\x17h=@'
p2481
tp2482
Rp2483
aI0
aI0
aI0
aI0
aI0
aa(lp2484
I00
aI00
a(lp2485
(lp2486
(lp2487
F83.0
aF435.0
aa(lp2488
F0.0
aF0.0
aa(lp2489
F0.0
aF0.0
aa(lp2490
F0.0
aF0.0
aaa(lp2491
(lp2492
F721.0
aF439.0
aa(lp2493
F0.0
aF0.0
aa(lp2494
F0.0
aF0.0
aa(lp2495
F0.0
aF0.0
aaaag13
(g17
S'i\x8a\xdes\xe4lV@'
p2496
tp2497
Rp2498
ag13
(g17
S'\x051\x9e\xbev9\x86@'
p2499
tp2500
Rp2501
ag13
(g17
S'5\xbb\xc5W\xcd!z@'
p2502
tp2503
Rp2504
ag13
(g17
S'\x9cKLE\x16=z@'
p2505
tp2506
Rp2507
ag13
(g17
S'\xdb\xe2\x03\x98|O=@'
p2508
tp2509
Rp2510
aI0
aI0
aI0
aI0
aI0
aa(lp2511
I00
aI00
a(lp2512
(lp2513
(lp2514
F83.0
aF437.0
aa(lp2515
F0.0
aF0.0
aa(lp2516
F0.0
aF0.0
aa(lp2517
F0.0
aF0.0
aaa(lp2518
(lp2519
F723.0
aF440.0
aa(lp2520
F0.0
aF0.0
aa(lp2521
F0.0
aF0.0
aa(lp2522
F0.0
aF0.0
aaaag13
(g17
S',]B_H\x16V@'
p2523
tp2524
Rp2525
ag13
(g17
S'\x97!R\xd4h=\x86@'
p2526
tp2527
Rp2528
ag13
(g17
S'-r_\xabB@z@'
p2529
tp2530
Rp2531
ag13
(g17
S'\xd6\x88\xcf\x7f\xef]z@'
p2532
tp2533
Rp2534
ag13
(g17
S'\xf7U\xf2\x12A9=@'
p2535
tp2536
Rp2537
aI0
aI0
aI0
aI0
aI0
aa(lp2538
I00
aI00
a(lp2539
(lp2540
(lp2541
F82.0
aF439.0
aa(lp2542
F0.0
aF0.0
aa(lp2543
F0.0
aF0.0
aa(lp2544
F0.0
aF0.0
aaa(lp2545
(lp2546
F723.0
aF440.0
aa(lp2547
F0.0
aF0.0
aa(lp2548
F0.0
aF0.0
aa(lp2549
F0.0
aF0.0
aaaag13
(g17
S'k\x04\xcaR\xc2\xd5U@'
p2550
tp2551
Rp2552
ag13
(g17
S'Yk\xf4B\x82C\x86@'
p2553
tp2554
Rp2555
ag13
(g17
S'\xa9\x02\xab~\xd7^z@'
p2556
tp2557
Rp2558
ag13
(g17
S'\xd3e\x9fV\x11\x80z@'
p2559
tp2560
Rp2561
ag13
(g17
S'\xcf;\x96(\x0e$=@'
p2562
tp2563
Rp2564
aI0
aI0
aI0
aI0
aI0
aa(lp2565
I00
aI00
a(lp2566
(lp2567
(lp2568
F80.0
aF439.0
aa(lp2569
F0.0
aF0.0
aa(lp2570
F0.0
aF0.0
aa(lp2571
F0.0
aF0.0
aaag2545
aag13
(g17
S'\x153Ub\xee\xa2U@'
p2572
tp2573
Rp2574
ag13
(g17
S'\xf7\x9a\x90\xc0\x9fK\x86@'
p2575
tp2576
Rp2577
ag13
(g17
S'\xbe\x02w\xbb\xe8}z@'
p2578
tp2579
Rp2580
ag13
(g17
S'\xd9\xd2T\x08G\xa3z@'
p2581
tp2582
Rp2583
ag13
(g17
S'\xbe\xa4n\xe1\x85\x0e=@'
p2584
tp2585
Rp2586
aI0
aI0
aI0
aI0
aI0
aa(lp2587
I00
aI00
a(lp2588
(lp2589
(lp2590
F78.0
aF439.0
aa(lp2591
F0.0
aF0.0
aa(lp2592
F0.0
aF0.0
aa(lp2593
F0.0
aF0.0
aaa(lp2594
(lp2595
F718.0
aF440.0
aa(lp2596
F0.0
aF0.0
aa(lp2597
F0.0
aF0.0
aa(lp2598
F0.0
aF0.0
aaaag13
(g17
S'(\xe8H\\\x0fwU@'
p2599
tp2600
Rp2601
ag13
(g17
S'\x03\xd8}\x1c\x82U\x86@'
p2602
tp2603
Rp2604
ag13
(g17
S'\xfb\x9c\x01\xf9\xed\x9dz@'
p2605
tp2606
Rp2607
ag13
(g17
S'(\x06R\xb5\xee\xc6z@'
p2608
tp2609
Rp2610
ag13
(g17
S'!\x0e\x8e\xf0\xc9\xf7<@'
p2611
tp2612
Rp2613
aI0
aI0
aI0
aI0
aI0
aa(lp2614
I00
aI00
a(lp2615
(lp2616
(lp2617
F77.0
aF438.0
aa(lp2618
F0.0
aF0.0
aa(lp2619
F0.0
aF0.0
aa(lp2620
F0.0
aF0.0
aaa(lp2621
(lp2622
F715.0
aF440.0
aa(lp2623
F0.0
aF0.0
aa(lp2624
F0.0
aF0.0
aa(lp2625
F0.0
aF0.0
aaaag13
(g17
S'\x8a\x97\r\xd4uMU@'
p2626
tp2627
Rp2628
ag13
(g17
S'\r\r\xb9\xa0\xad`\x86@'
p2629
tp2630
Rp2631
ag13
(g17
S'\x9a\\\x9b&&\xbfz@'
p2632
tp2633
Rp2634
ag13
(g17
S'\x0e\xca*\xb31\xeaz@'
p2635
tp2636
Rp2637
ag13
(g17
S'G\xfa\xb1\xd7\xba\xdf<@'
p2638
tp2639
Rp2640
aI0
aI0
aI0
aI0
aI0
aa(lp2641
I00
aI00
a(lp2642
(lp2643
(lp2644
F76.0
aF437.0
aa(lp2645
F0.0
aF0.0
aa(lp2646
F0.0
aF0.0
aa(lp2647
F0.0
aF0.0
aaa(lp2648
(lp2649
F712.0
aF438.0
aa(lp2650
F0.0
aF0.0
aa(lp2651
F0.0
aF0.0
aa(lp2652
F0.0
aF0.0
aaaag13
(g17
S'b\x87\xbc"\xf5"U@'
p2653
tp2654
Rp2655
ag13
(g17
S'\x8cx]`Jl\x86@'
p2656
tp2657
Rp2658
ag13
(g17
S'K\x95\xc5\xdd$\xe1z@'
p2659
tp2660
Rp2661
ag13
(g17
S'\xdb\x1b\xf7\xba\x1e\x0c{@'
p2662
tp2663
Rp2664
ag13
(g17
S'\x912\xc6o\x06\xc7<@'
p2665
tp2666
Rp2667
aI0
aI0
aI0
aI0
aI0
aa(lp2668
I00
aI00
a(lp2669
(lp2670
(lp2671
F75.0
aF434.0
aa(lp2672
F0.0
aF0.0
aa(lp2673
F0.0
aF0.0
aa(lp2674
F0.0
aF0.0
aaa(lp2675
(lp2676
F712.0
aF436.0
aa(lp2677
F0.0
aF0.0
aa(lp2678
F0.0
aF0.0
aa(lp2679
F0.0
aF0.0
aaaag13
(g17
S'\t\xa3\x04\xb9\x03\xf5T@'
p2680
tp2681
Rp2682
ag13
(g17
S'E\x94\x91\x02\rw\x86@'
p2683
tp2684
Rp2685
ag13
(g17
S'\xcc\xa6(\xd5\x9d\x02{@'
p2686
tp2687
Rp2688
ag13
(g17
S'pH\xb7%\x95+{@'
p2689
tp2690
Rp2691
ag13
(g17
S'mz-\xc4\x19\xaf<@'
p2692
tp2693
Rp2694
aI0
aI0
aI0
aI0
aI0
aa(lp2695
I00
aI00
a(lp2696
(lp2697
(lp2698
F77.0
aF431.0
aa(lp2699
F0.0
aF0.0
aa(lp2700
F0.0
aF0.0
aa(lp2701
F0.0
aF0.0
aaag2675
aag13
(g17
S'h&7cG\xc1T@'
p2702
tp2703
Rp2704
ag13
(g17
S'o\x10\xeeWD\x7f\x86@'
p2705
tp2706
Rp2707
ag13
(g17
S'\xa0"\x93\x8fz!{@'
p2708
tp2709
Rp2710
ag13
(g17
S'f\xfaa\x85\x13G{@'
p2711
tp2712
Rp2713
ag13
(g17
S'\x938u\xed\xf2\x99<@'
p2714
tp2715
Rp2716
aI0
aI0
aI0
aI0
aI0
aa(lp2717
I00
aI00
a(lp2718
(lp2719
(lp2720
F80.0
aF429.0
aa(lp2721
F0.0
aF0.0
aa(lp2722
F0.0
aF0.0
aa(lp2723
F0.0
aF0.0
aaa(lp2724
(lp2725
F711.0
aF433.0
aa(lp2726
F0.0
aF0.0
aa(lp2727
F0.0
aF0.0
aa(lp2728
F0.0
aF0.0
aaaag13
(g17
S'\xb3o5S\xba\x85T@'
p2729
tp2730
Rp2731
ag13
(g17
S'\x86\xfbD:0\x83\x86@'
p2732
tp2733
Rp2734
ag13
(g17
S'\xe3 \xa9\xae.;{@'
p2735
tp2736
Rp2737
ag13
(g17
S'\x9d\t \xf1\xca\\{@'
p2738
tp2739
Rp2740
ag13
(g17
S'\xc7\x10\x17\xb3\xa9\x89<@'
p2741
tp2742
Rp2743
aI0
aI0
aI0
aI0
aI0
aa(lp2744
I00
aI00
a(lp2745
(lp2746
(lp2747
F84.0
aF427.0
aa(lp2748
F0.0
aF0.0
aa(lp2749
F0.0
aF0.0
aa(lp2750
F0.0
aF0.0
aaa(lp2751
(lp2752
F711.0
aF431.0
aa(lp2753
F0.0
aF0.0
aa(lp2754
F0.0
aF0.0
aa(lp2755
F0.0
aF0.0
aaaag13
(g17
S'oy\xb7;5BT@'
p2756
tp2757
Rp2758
ag13
(g17
S'Y\xcfs(\x9c\x81\x86@'
p2759
tp2760
Rp2761
ag13
(g17
S'x\xa6z\x04?M{@'
p2762
tp2763
Rp2764
ag13
(g17
S'V{"\xc2-k{@'
p2765
tp2766
Rp2767
ag13
(g17
S'\x9f\xf9}\x1f\xde\x7f<@'
p2768
tp2769
Rp2770
aI0
aI0
aI0
aI0
aI0
aa(lp2771
I00
aI00
a(lp2772
(lp2773
(lp2774
F88.0
aF425.0
aa(lp2775
F0.0
aF0.0
aa(lp2776
F0.0
aF0.0
aa(lp2777
F0.0
aF0.0
aaa(lp2778
(lp2779
F711.0
aF430.0
aa(lp2780
F0.0
aF0.0
aa(lp2781
F0.0
aF0.0
aa(lp2782
F0.0
aF0.0
aaaag13
(g17
S'N\xa8\x89c\xad\xfaS@'
p2783
tp2784
Rp2785
ag13
(g17
S'>\xa6\x1e\x1esz\x86@'
p2786
tp2787
Rp2788
ag13
(g17
S'\xb3Z\x9d\x9c\xcbU{@'
p2789
tp2790
Rp2791
ag13
(g17
S"'+\xb2/lq{@"
p2792
tp2793
Rp2794
ag13
(g17
S'h\x94\x1e\xfdT}<@'
p2795
tp2796
Rp2797
aI0
aI0
aI0
aI0
aI0
aa(lp2798
I00
aI00
a(lp2799
(lp2800
(lp2801
F92.0
aF423.0
aa(lp2802
F0.0
aF0.0
aa(lp2803
F0.0
aF0.0
aa(lp2804
F0.0
aF0.0
aaa(lp2805
(lp2806
F712.0
aF423.0
aa(lp2807
F0.0
aF0.0
aa(lp2808
F0.0
aF0.0
aa(lp2809
F0.0
aF0.0
aaaag13
(g17
S'(`\xe9\x9fD\xb8S@'
p2810
tp2811
Rp2812
ag13
(g17
S'(\x15\xad*\xfen\x86@'
p2813
tp2814
Rp2815
ag13
(g17
S'a\xa2\x87y\xe5S{@'
p2816
tp2817
Rp2818
ag13
(g17
S'^\xd8M\xc4\x8do{@'
p2819
tp2820
Rp2821
ag13
(g17
S'\x03-l\x8c\xd5\x81<@'
p2822
tp2823
Rp2824
aI0
aI0
aI0
aI0
aI0
aa(lp2825
I00
aI00
a(lp2826
(lp2827
(lp2828
F96.0
aF420.0
aa(lp2829
F0.0
aF0.0
aa(lp2830
F0.0
aF0.0
aa(lp2831
F0.0
aF0.0
aaa(lp2832
(lp2833
F712.0
aF422.0
aa(lp2834
F0.0
aF0.0
aa(lp2835
F0.0
aF0.0
aa(lp2836
F0.0
aF0.0
aaaag13
(g17
S'b\x99\xc6\xce\x8a\x88S@'
p2837
tp2838
Rp2839
ag13
(g17
S' \x06\xcd\xb8\x83a\x86@'
p2840
tp2841
Rp2842
ag13
(g17
S'X\xd6\xb9c\xc9G{@'
p2843
tp2844
Rp2845
ag13
(g17
S'\x1fLP-[f{@'
p2846
tp2847
Rp2848
ag13
(g17
S'\x07\xa8\x1b\xa2\x91\x8c<@'
p2849
tp2850
Rp2851
aI0
aI0
aI0
aI0
aI0
aa(lp2852
I00
aI00
a(lp2853
(lp2854
(lp2855
F97.0
aF418.0
aa(lp2856
F0.0
aF0.0
aa(lp2857
F0.0
aF0.0
aa(lp2858
F0.0
aF0.0
aaa(lp2859
(lp2860
F710.0
aF418.0
aa(lp2861
F0.0
aF0.0
aa(lp2862
F0.0
aF0.0
aa(lp2863
F0.0
aF0.0
aaaag13
(g17
S'\xcd\xaf\x8ew\xebzS@'
p2864
tp2865
Rp2866
ag13
(g17
S'u\x9cz&\x85T\x86@'
p2867
tp2868
Rp2869
ag13
(g17
S'`\xc8\xb6\x13\xc62{@'
p2870
tp2871
Rp2872
ag13
(g17
S'\xfd\x95\xdd\xe7\xd0V{@'
p2873
tp2874
Rp2875
ag13
(g17
S'}J!T\xc2\x9c<@'
p2876
tp2877
Rp2878
aI0
aI0
aI0
aI0
aI0
aa(lp2879
I00
aI00
a(lp2880
(lp2881
(lp2882
F99.0
aF416.0
aa(lp2883
F0.0
aF0.0
aa(lp2884
F0.0
aF0.0
aa(lp2885
F0.0
aF0.0
aaa(lp2886
(lp2887
F709.0
aF417.0
aa(lp2888
F0.0
aF0.0
aa(lp2889
F0.0
aF0.0
aa(lp2890
F0.0
aF0.0
aaaag13
(g17
S'0\xe2\xb2M\x8a\x9cS@'
p2891
tp2892
Rp2893
ag13
(g17
S'\x15\xfao&\xeeI\x86@'
p2894
tp2895
Rp2896
ag13
(g17
S'\xcex_\xd4\xec\x16{@'
p2897
tp2898
Rp2899
ag13
(g17
S'\x16dB\xce\xabA{@'
p2900
tp2901
Rp2902
ag13
(g17
S'CK\x13g\x13\xb2<@'
p2903
tp2904
Rp2905
aI0
aI0
aI0
aI0
aI0
aa(lp2906
I00
aI00
a(lp2907
(lp2908
(lp2909
F100.0
aF415.0
aa(lp2910
F0.0
aF0.0
aa(lp2911
F0.0
aF0.0
aa(lp2912
F0.0
aF0.0
aaa(lp2913
(lp2914
F709.0
aF416.0
aa(lp2915
F0.0
aF0.0
aa(lp2916
F0.0
aF0.0
aa(lp2917
F0.0
aF0.0
aaaag13
(g17
S'\x9bnZh\xc5\xf3S@'
p2918
tp2919
Rp2920
ag13
(g17
S'#FP\x90\x8cB\x86@'
p2921
tp2922
Rp2923
ag13
(g17
S'\tA\xb3\x12\xa3\xf6z@'
p2924
tp2925
Rp2926
ag13
(g17
S"-\xf0t\xee)'{@"
p2927
tp2928
Rp2929
ag13
(g17
S'\xe0\xe3\xe5\x1f\x9a\xcc<@'
p2930
tp2931
Rp2932
aI0
aI0
aI0
aI0
aI0
aa(lp2933
I00
aI00
a(lp2934
(lp2935
(lp2936
F100.0
aF415.0
aa(lp2937
F0.0
aF0.0
aa(lp2938
F0.0
aF0.0
aa(lp2939
F0.0
aF0.0
aaa(lp2940
(lp2941
F710.0
aF416.0
aa(lp2942
F0.0
aF0.0
aa(lp2943
F0.0
aF0.0
aa(lp2944
F0.0
aF0.0
aaaag13
(g17
S'\x05~?5\x94}T@'
p2945
tp2946
Rp2947
ag13
(g17
S'L\x0f?\xd2\x15>\x86@'
p2948
tp2949
Rp2950
ag13
(g17
S'\xbc\xb9\x05\x86\t\xd4z@'
p2951
tp2952
Rp2953
ag13
(g17
S'\xa8F&\xb0<\x07{@'
p2954
tp2955
Rp2956
ag13
(g17
S'V\xf3\x9bzT\xec<@'
p2957
tp2958
Rp2959
aI0
aI0
aI0
aI0
aI0
aa(lp2960
I00
aI00
a(lp2961
(lp2962
(lp2963
F102.0
aF413.0
aa(lp2964
F0.0
aF0.0
aa(lp2965
F0.0
aF0.0
aa(lp2966
F0.0
aF0.0
aaag2940
aag13
(g17
S'\x88\xe1\xe4\x9d\xa1-U@'
p2967
tp2968
Rp2969
ag13
(g17
S'V\x8e\xd5\xfb\x91;\x86@'
p2970
tp2971
Rp2972
ag13
(g17
S'n\xf6\xc2\xdb\xa4\xb0z@'
p2973
tp2974
Rp2975
ag13
(g17
S'\x02\x8d\xecfD\xe2z@'
p2976
tp2977
Rp2978
ag13
(g17
S'\x9b\xfa\xc30\x8c\x10=@'
p2979
tp2980
Rp2981
aI0
aI0
aI0
aI0
aI0
aa(lp2982
I00
aI00
a(lp2983
(lp2984
(lp2985
F105.0
aF413.0
aa(lp2986
F0.0
aF0.0
aa(lp2987
F0.0
aF0.0
aa(lp2988
F0.0
aF0.0
aaa(lp2989
(lp2990
F711.0
aF415.0
aa(lp2991
F0.0
aF0.0
aa(lp2992
F0.0
aF0.0
aa(lp2993
F0.0
aF0.0
aaaag13
(g17
S'\xc4\xa3|>\x10\xf1U@'
p2994
tp2995
Rp2996
ag13
(g17
S'\xcam5\x8f\xdb9\x86@'
p2997
tp2998
Rp2999
ag13
(g17
S'b\xea8Zu\x8dz@'
p3000
tp3001
Rp3002
ag13
(g17
S'\xb3\xe4AJ\x91\xb9z@'
p3003
tp3004
Rp3005
ag13
(g17
S'9B0;\x907=@'
p3006
tp3007
Rp3008
aI0
aI0
aI0
aI0
aI0
aa(lp3009
I00
aI00
a(lp3010
(lp3011
(lp3012
F109.0
aF413.0
aa(lp3013
F0.0
aF0.0
aa(lp3014
F0.0
aF0.0
aa(lp3015
F0.0
aF0.0
aaa(lp3016
(lp3017
F713.0
aF415.0
aa(lp3018
F0.0
aF0.0
aa(lp3019
F0.0
aF0.0
aa(lp3020
F0.0
aF0.0
aaaag13
(g17
S'\x9f\x87\xc0\x0e\x8a\xb3V@'
p3021
tp3022
Rp3023
ag13
(g17
S'o\x8cc\xe6\x118\x86@'
p3024
tp3025
Rp3026
ag13
(g17
S'\xfa\x1a\x9c\xbf@kz@'
p3027
tp3028
Rp3029
ag13
(g17
S'\x93=(\x7f\x9d\x8fz@'
p3030
tp3031
Rp3032
ag13
(g17
S'\x82\x98\xaap\xed^=@'
p3033
tp3034
Rp3035
aI0
aI0
aI0
aI0
aI0
aa(lp3036
I00
aI00
a(lp3037
(lp3038
(lp3039
F113.0
aF412.0
aa(lp3040
F0.0
aF0.0
aa(lp3041
F0.0
aF0.0
aa(lp3042
F0.0
aF0.0
aaa(lp3043
(lp3044
F717.0
aF414.0
aa(lp3045
F0.0
aF0.0
aa(lp3046
F0.0
aF0.0
aa(lp3047
F0.0
aF0.0
aaaag13
(g17
S'b\xc3;\xf2\xdddW@'
p3048
tp3049
Rp3050
ag13
(g17
S'}0[m\xdf5\x86@'
p3051
tp3052
Rp3053
ag13
(g17
S'LT\xcb;\xe0Jz@'
p3054
tp3055
Rp3056
ag13
(g17
S'\xd4!-*\x9fgz@'
p3057
tp3058
Rp3059
ag13
(g17
S's\x9b<t\x0c\x84=@'
p3060
tp3061
Rp3062
aI0
aI0
aI0
aI0
aI0
aa(lp3063
I00
aI00
a(lp3064
(lp3065
(lp3066
F119.0
aF411.0
aa(lp3067
F0.0
aF0.0
aa(lp3068
F0.0
aF0.0
aa(lp3069
F0.0
aF0.0
aaa(lp3070
(lp3071
F726.0
aF411.0
aa(lp3072
F0.0
aF0.0
aa(lp3073
F0.0
aF0.0
aa(lp3074
F0.0
aF0.0
aaaag13
(g17
S'\x90WY\xe6T\xfdW@'
p3075
tp3076
Rp3077
ag13
(g17
S'\xc0B<`\x8c3\x86@'
p3078
tp3079
Rp3080
ag13
(g17
S'}\x12$\xb4[-z@'
p3081
tp3082
Rp3083
ag13
(g17
S'1\xef\xb9>\xaaDz@'
p3084
tp3085
Rp3086
ag13
(g17
S'\xca\x14\x06\x05\xed\xa4=@'
p3087
tp3088
Rp3089
aI0
aI0
aI0
aI0
aI0
aa(lp3090
I00
aI00
a(lp3091
(lp3092
(lp3093
F125.0
aF410.0
aa(lp3094
F0.0
aF0.0
aa(lp3095
F0.0
aF0.0
aa(lp3096
F0.0
aF0.0
aaag3070
aag13
(g17
S'\nv&k\x97\x7fX@'
p3097
tp3098
Rp3099
ag13
(g17
S'\x08\x89\x8fA\xed1\x86@'
p3100
tp3101
Rp3102
ag13
(g17
S'0\xd0\x03h\xa3\x13z@'
p3103
tp3104
Rp3105
ag13
(g17
S'\xd5_Z\xda\xbd(z@'
p3106
tp3107
Rp3108
ag13
(g17
S'\x8d\xfc\xe1\x8b\xab\xc0=@'
p3109
tp3110
Rp3111
aI0
aI0
aI0
aI0
aI0
aa(lp3112
I00
aI00
a(lp3113
(lp3114
(lp3115
F132.0
aF409.0
aa(lp3116
F0.0
aF0.0
aa(lp3117
F0.0
aF0.0
aa(lp3118
F0.0
aF0.0
aaa(lp3119
(lp3120
F730.0
aF410.0
aa(lp3121
F0.0
aF0.0
aa(lp3122
F0.0
aF0.0
aa(lp3123
F0.0
aF0.0
aaaag13
(g17
S'\xf6a\xf9<g\xf7X@'
p3124
tp3125
Rp3126
ag13
(g17
S'F9\x08\xf6M2\x86@'
p3127
tp3128
Rp3129
ag13
(g17
S'NC2[4\xfey@'
p3130
tp3131
Rp3132
ag13
(g17
S'\xf8\x8cl}\xfb\x13z@'
p3133
tp3134
Rp3135
ag13
(g17
S'\xaeZ\x9cKp\xd7=@'
p3136
tp3137
Rp3138
aI0
aI0
aI0
aI0
aI0
aa(lp3139
I00
aI00
a(lp3140
(lp3141
(lp3142
F139.0
aF409.0
aa(lp3143
F0.0
aF0.0
aa(lp3144
F0.0
aF0.0
aa(lp3145
F0.0
aF0.0
aaa(lp3146
(lp3147
F735.0
aF409.0
aa(lp3148
F0.0
aF0.0
aa(lp3149
F0.0
aF0.0
aa(lp3150
F0.0
aF0.0
aaaag13
(g17
S'\xfa\xaeh\xf6\xdcuY@'
p3151
tp3152
Rp3153
ag13
(g17
S'\xa5u\xa3\x06/6\x86@'
p3154
tp3155
Rp3156
ag13
(g17
S'\x8b\xdd\x06\x98\xd5\xecy@'
p3157
tp3158
Rp3159
ag13
(g17
S'\xa7\xe1\xa4\xe9\xca\x04z@'
p3160
tp3161
Rp3162
ag13
(g17
S'h\xb4\xc1\xfe#\xea=@'
p3163
tp3164
Rp3165
aI0
aI0
aI0
aI0
aI0
aa(lp3166
I00
aI00
a(lp3167
(lp3168
(lp3169
F143.0
aF408.0
aa(lp3170
F0.0
aF0.0
aa(lp3171
F0.0
aF0.0
aa(lp3172
F0.0
aF0.0
aaa(lp3173
(lp3174
F738.0
aF408.0
aa(lp3175
F0.0
aF0.0
aa(lp3176
F0.0
aF0.0
aa(lp3177
F0.0
aF0.0
aaaag13
(g17
S'\xd5\xd3m\x8c\xb9\x0cZ@'
p3178
tp3179
Rp3180
ag13
(g17
S'\x17V\xc7\x0f\xe4>\x86@'
p3181
tp3182
Rp3183
ag13
(g17
S'\xc3\x15\x19R\xa0\xdey@'
p3184
tp3185
Rp3186
ag13
(g17
S'\xd2cc\x9f\xab\xf8y@'
p3187
tp3188
Rp3189
ag13
(g17
S'\x981;o \xfa=@'
p3190
tp3191
Rp3192
aI0
aI0
aI0
aI0
aI0
aa(lp3193
I00
aI00
a(lp3194
(lp3195
(lp3196
F142.0
aF408.0
aa(lp3197
F0.0
aF0.0
aa(lp3198
F0.0
aF0.0
aa(lp3199
F0.0
aF0.0
aaa(lp3200
(lp3201
F739.0
aF408.0
aa(lp3202
F0.0
aF0.0
aa(lp3203
F0.0
aF0.0
aa(lp3204
F0.0
aF0.0
aaaag13
(g17
S'\xea@\xcd\x82[\xcaZ@'
p3205
tp3206
Rp3207
ag13
(g17
S'*\x00\xb1\x91JM\x86@'
p3208
tp3209
Rp3210
ag13
(g17
S'=\x19h\xdfX\xd2y@'
p3211
tp3212
Rp3213
ag13
(g17
S"'\x0f\xa4L\x07\xedy@"
p3214
tp3215
Rp3216
ag13
(g17
S'\xab\xbb\x86\x1d\xd7\x08>@'
p3217
tp3218
Rp3219
aI0
aI0
aI0
aI0
aI0
aa(lp3220
I00
aI00
a(lp3221
(lp3222
(lp3223
F141.0
aF408.0
aa(lp3224
F0.0
aF0.0
aa(lp3225
F0.0
aF0.0
aa(lp3226
F0.0
aF0.0
aaa(lp3227
(lp3228
F738.0
aF408.0
aa(lp3229
F0.0
aF0.0
aa(lp3230
F0.0
aF0.0
aa(lp3231
F0.0
aF0.0
aaaag13
(g17
S'\x1f\xc0\xe7\xff\xb1\xb6[@'
p3232
tp3233
Rp3234
ag13
(g17
S'4\x93]era\x86@'
p3235
tp3236
Rp3237
ag13
(g17
S'K\xe5\x8d\x9e\xd3\xc6y@'
p3238
tp3239
Rp3240
ag13
(g17
S'\x0c\xdc{\xc4%\xe0y@'
p3241
tp3242
Rp3243
ag13
(g17
S'\x07\xca[)\xbf\x17>@'
p3244
tp3245
Rp3246
aI0
aI0
aI0
aI0
aI0
aa(lp3247
I00
aI00
a(lp3248
(lp3249
(lp3250
F140.0
aF408.0
aa(lp3251
F0.0
aF0.0
aa(lp3252
F0.0
aF0.0
aa(lp3253
F0.0
aF0.0
aaa(lp3254
(lp3255
F737.0
aF407.0
aa(lp3256
F0.0
aF0.0
aa(lp3257
F0.0
aF0.0
aa(lp3258
F0.0
aF0.0
aaaag13
(g17
S"\x07'\xa0\xf1}\xd0\\@"
p3259
tp3260
Rp3261
ag13
(g17
S'\xaf9\x88Coz\x86@'
p3262
tp3263
Rp3264
ag13
(g17
S'gr\n\xedO\xbby@'
p3265
tp3266
Rp3267
ag13
(g17
S'\xff\x1a\xdb5\x88\xd1y@'
p3268
tp3269
Rp3270
ag13
(g17
S'\xa6\xd2"{\x12(>@'
p3271
tp3272
Rp3273
aI0
aI0
aI0
aI0
aI0
aa(lp3274
I00
aI00
a(lp3275
(lp3276
(lp3277
F141.0
aF407.0
aa(lp3278
F0.0
aF0.0
aa(lp3279
F0.0
aF0.0
aa(lp3280
F0.0
aF0.0
aaa(lp3281
(lp3282
F737.0
aF407.0
aa(lp3283
F0.0
aF0.0
aa(lp3284
F0.0
aF0.0
aa(lp3285
F0.0
aF0.0
aaaag13
(g17
S'w\xa0\x9d\x16\xe7\x0b^@'
p3286
tp3287
Rp3288
ag13
(g17
S'2\x89\xa0Ws\x96\x86@'
p3289
tp3290
Rp3291
ag13
(g17
S'\x0c\x96a\xa9\xa7\xafy@'
p3292
tp3293
Rp3294
ag13
(g17
S'[\x03w\xdb\xb9\xc1y@'
p3295
tp3296
Rp3297
ag13
(g17
S'\x1c\x1f\xee\xe5Y:>@'
p3298
tp3299
Rp3300
aI0
aI0
aI0
aI0
aI0
aa(lp3301
I00
aI00
a(lp3302
(lp3303
(lp3304
F141.0
aF407.0
aa(lp3305
F0.0
aF0.0
aa(lp3306
F0.0
aF0.0
aa(lp3307
F0.0
aF0.0
aaa(lp3308
(lp3309
F737.0
aF407.0
aa(lp3310
F0.0
aF0.0
aa(lp3311
F0.0
aF0.0
aa(lp3312
F0.0
aF0.0
aaaag13
(g17
S'\xf4\r\xc9\x17\xd3R_@'
p3313
tp3314
Rp3315
ag13
(g17
S'\xa7\xe1B\xa9\x1d\xb3\x86@'
p3316
tp3317
Rp3318
ag13
(g17
S':\xe2\xeb\x98=\xa4y@'
p3319
tp3320
Rp3321
ag13
(g17
S'\x10\xe2Zv\xe0\xb1y@'
p3322
tp3323
Rp3324
ag13
(g17
S'~F\xc6E\xfdM>@'
p3325
tp3326
Rp3327
aI0
aI0
aI0
aI0
aI0
aa(lp3328
I00
aI00
a(lp3329
(lp3330
(lp3331
F141.0
aF407.0
aa(lp3332
F0.0
aF0.0
aa(lp3333
F0.0
aF0.0
aa(lp3334
F0.0
aF0.0
aaa(lp3335
(lp3336
F737.0
aF407.0
aa(lp3337
F0.0
aF0.0
aa(lp3338
F0.0
aF0.0
aa(lp3339
F0.0
aF0.0
aaaag13
(g17
S'\x81\x1c>=#D`@'
p3340
tp3341
Rp3342
ag13
(g17
S'p9/\xc1\xeb\xcd\x86@'
p3343
tp3344
Rp3345
ag13
(g17
S'\xb9\xe5H\xd0\xb8\x99y@'
p3346
tp3347
Rp3348
ag13
(g17
S'YE\xc4\x86#\xa3y@'
p3349
tp3350
Rp3351
ag13
(g17
S'm\xbd)n3a>@'
p3352
tp3353
Rp3354
aI0
aI0
aI0
aI0
aI0
aa(lp3355
I00
aI00
a(lp3356
(lp3357
(lp3358
F141.0
aF407.0
aa(lp3359
F0.0
aF0.0
aa(lp3360
F0.0
aF0.0
aa(lp3361
F0.0
aF0.0
aaa(lp3362
(lp3363
F738.0
aF407.0
aa(lp3364
F0.0
aF0.0
aa(lp3365
F0.0
aF0.0
aa(lp3366
F0.0
aF0.0
aaaag13
(g17
S'\xd4\x90\xeb\xa3\xe4\xc7`@'
p3367
tp3368
Rp3369
ag13
(g17
S'\x07\x08i^\xb2\xe4\x86@'
p3370
tp3371
Rp3372
ag13
(g17
S'||\xce\x7f\xa1\x90y@'
p3373
tp3374
Rp3375
ag13
(g17
S'\xac\xfe\x91\xdaQ\x96y@'
p3376
tp3377
Rp3378
ag13
(g17
S'\xa7\xf0\xd61\xb7q>@'
p3379
tp3380
Rp3381
aI0
aI0
aI0
aI0
aI0
aa(lp3382
I00
aI00
a(lp3383
(lp3384
(lp3385
F142.0
aF407.0
aa(lp3386
F0.0
aF0.0
aa(lp3387
F0.0
aF0.0
aa(lp3388
F0.0
aF0.0
aaa(lp3389
(lp3390
F738.0
aF407.0
aa(lp3391
F0.0
aF0.0
aa(lp3392
F0.0
aF0.0
aa(lp3393
F0.0
aF0.0
aaaag13
(g17
S'\x94\x85\xde\xbd\xed*a@'
p3394
tp3395
Rp3396
ag13
(g17
S'\xef.\xae\x18\x06\xf6\x86@'
p3397
tp3398
Rp3399
ag13
(g17
S'!e\xd3\xf9.\x89y@'
p3400
tp3401
Rp3402
ag13
(g17
S'\x01\x95\x12Y\xb9\x8by@'
p3403
tp3404
Rp3405
ag13
(g17
S'\x90!\xda\x02\xd6}>@'
p3406
tp3407
Rp3408
aI0
aI0
aI0
aI0
aI0
aa(lp3409
I00
aI00
a(lp3410
(lp3411
(lp3412
F141.0
aF407.0
aa(lp3413
F0.0
aF0.0
aa(lp3414
F0.0
aF0.0
aa(lp3415
F0.0
aF0.0
aaa(lp3416
(lp3417
F739.0
aF407.0
aa(lp3418
F0.0
aF0.0
aa(lp3419
F0.0
aF0.0
aa(lp3420
F0.0
aF0.0
aaaag13
(g17
S'2A\xbb\xa1\xebja@'
p3421
tp3422
Rp3423
ag13
(g17
S'\xd1\x97T<\x83\x01\x87@'
p3424
tp3425
Rp3426
ag13
(g17
S'9\xe1\xa8\xbd<\x83y@'
p3427
tp3428
Rp3429
ag13
(g17
S"\x1f\t\x84'K\x83y@"
p3430
tp3431
Rp3432
ag13
(g17
S'\x8bz\xe305\x85>@'
p3433
tp3434
Rp3435
aI0
aI0
aI0
aI0
aI0
aa(lp3436
I00
aI00
a(lp3437
(lp3438
(lp3439
F141.0
aF407.0
aa(lp3440
F0.0
aF0.0
aa(lp3441
F0.0
aF0.0
aa(lp3442
F0.0
aF0.0
aaa(lp3443
(lp3444
F740.0
aF408.0
aa(lp3445
F0.0
aF0.0
aa(lp3446
F0.0
aF0.0
aa(lp3447
F0.0
aF0.0
aaaag13
(g17
S'^\xe1\n\xaa\x16\x8da@'
p3448
tp3449
Rp3450
ag13
(g17
S'\xa4\xaf:\x9e\xd6\x07\x87@'
p3451
tp3452
Rp3453
ag13
(g17
S'x0\xd5\xb2h~y@'
p3454
tp3455
Rp3456
ag13
(g17
S'\x92\x9cTq\xcb|y@'
p3457
tp3458
Rp3459
ag13
(g17
S'\x8d(\x92\x04\xd6\x88>@'
p3460
tp3461
Rp3462
aI0
aI0
aI0
aI0
aI0
aa(lp3463
I00
aI00
a(lp3464
(lp3465
(lp3466
F141.0
aF408.0
aa(lp3467
F0.0
aF0.0
aa(lp3468
F0.0
aF0.0
aa(lp3469
F0.0
aF0.0
aaa(lp3470
(lp3471
F741.0
aF408.0
aa(lp3472
F0.0
aF0.0
aa(lp3473
F0.0
aF0.0
aa(lp3474
F0.0
aF0.0
aaaag13
(g17
S'-I\xae\x02=\x9ba@'
p3475
tp3476
Rp3477
ag13
(g17
S'"\xf5m\x92\x85\n\x87@'
p3478
tp3479
Rp3480
ag13
(g17
S'\x8du.0[zy@'
p3481
tp3482
Rp3483
ag13
(g17
S'\x92\x92\x12\x1c\xefwy@'
p3484
tp3485
Rp3486
ag13
(g17
S'\xb7\xc6<#<\x8a>@'
p3487
tp3488
Rp3489
aI0
aI0
aI0
aI0
aI0
aa(lp3490
I00
aI00
a(lp3491
(lp3492
(lp3493
F141.0
aF408.0
aa(lp3494
F0.0
aF0.0
aa(lp3495
F0.0
aF0.0
aa(lp3496
F0.0
aF0.0
aaa(lp3497
(lp3498
F742.0
aF408.0
aa(lp3499
F0.0
aF0.0
aa(lp3500
F0.0
aF0.0
aa(lp3501
F0.0
aF0.0
aaaag13
(g17
S'-I\xe0hk\x9fa@'
p3502
tp3503
Rp3504
ag13
(g17
S'\xe5\xc7\x91Mb\x0b\x87@'
p3505
tp3506
Rp3507
ag13
(g17
S'\xc0T\x848\xf0vy@'
p3508
tp3509
Rp3510
ag13
(g17
S'\xb3n\x10\x1e\x8aty@'
p3511
tp3512
Rp3513
ag13
(g17
S'\xbex(\xef\x88\x8a>@'
p3514
tp3515
Rp3516
aI0
aI0
aI0
aI0
aI0
aa(lp3517
I00
aI00
a(lp3518
(lp3519
(lp3520
F140.0
aF409.0
aa(lp3521
F0.0
aF0.0
aa(lp3522
F0.0
aF0.0
aa(lp3523
F0.0
aF0.0
aaa(lp3524
(lp3525
F742.0
aF409.0
aa(lp3526
F0.0
aF0.0
aa(lp3527
F0.0
aF0.0
aa(lp3528
F0.0
aF0.0
aaaag13
(g17
S'\xaf\xbew\xc8\xac\xa0a@'
p3529
tp3530
Rp3531
ag13
(g17
S'\xea(d\xc7\r\x0c\x87@'
p3532
tp3533
Rp3534
ag13
(g17
S':\xe2\xeb\x98=ty@'
p3535
tp3536
Rp3537
ag13
(g17
S'\xdb\x9csF\x8bry@'
p3538
tp3539
Rp3540
ag13
(g17
S'R6$\xa6\xf3\x89>@'
p3541
tp3542
Rp3543
aI0
aI0
aI0
aI0
aI0
aa(lp3544
I00
aI00
a(lp3545
(lp3546
(lp3547
F139.0
aF410.0
aa(lp3548
F0.0
aF0.0
aa(lp3549
F0.0
aF0.0
aa(lp3550
F0.0
aF0.0
aaa(lp3551
(lp3552
F742.0
aF409.0
aa(lp3553
F0.0
aF0.0
aa(lp3554
F0.0
aF0.0
aa(lp3555
F0.0
aF0.0
aaaag13
(g17
S'\x85\x17\x01\xfe\x16\xa2a@'
p3556
tp3557
Rp3558
ag13
(g17
S'?\x1e\x10_\xa8\r\x87@'
p3559
tp3560
Rp3561
ag13
(g17
S'\xf0\xe1\xcc\xc3}ry@'
p3562
tp3563
Rp3564
ag13
(g17
S'\xcf\x05\xcf\xc1\xe2qy@'
p3565
tp3566
Rp3567
ag13
(g17
S'\xbc\xcb\x02{\xe7\x87>@'
p3568
tp3569
Rp3570
aI0
aI0
aI0
aI0
aI0
aa(lp3571
I00
aI00
a(lp3572
(lp3573
(lp3574
F139.0
aF411.0
aa(lp3575
F0.0
aF0.0
aa(lp3576
F0.0
aF0.0
aa(lp3577
F0.0
aF0.0
aaa(lp3578
(lp3579
F743.0
aF411.0
aa(lp3580
F0.0
aF0.0
aa(lp3581
F0.0
aF0.0
aa(lp3582
F0.0
aF0.0
aaaag13
(g17
S'\xe9\xca\xfc\x87\xb8\xa3a@'
p3583
tp3584
Rp3585
ag13
(g17
S'-(_\x06\xa4\x10\x87@'
p3586
tp3587
Rp3588
ag13
(g17
S'\xba\xc0uD\xf0qy@'
p3589
tp3590
Rp3591
ag13
(g17
S'\xdb\x9csF\x8bry@'
p3592
tp3593
Rp3594
ag13
(g17
S'<\xbfB\x86\xb0\x83>@'
p3595
tp3596
Rp3597
aI0
aI0
aI0
aI0
aI0
aa(lp3598
I00
aI00
a(lp3599
(lp3600
(lp3601
F140.0
aF413.0
aa(lp3602
F0.0
aF0.0
aa(lp3603
F0.0
aF0.0
aa(lp3604
F0.0
aF0.0
aaa(lp3605
(lp3606
F745.0
aF413.0
aa(lp3607
F0.0
aF0.0
aa(lp3608
F0.0
aF0.0
aa(lp3609
F0.0
aF0.0
aaaag13
(g17
S'\x03\xad\xee\x1d?\xa4a@'
p3610
tp3611
Rp3612
ag13
(g17
S'\xc8-\xcb\xea\xe9\x14\x87@'
p3613
tp3614
Rp3615
ag13
(g17
S'U)\x98\xcb\xd7ry@'
p3616
tp3617
Rp3618
ag13
(g17
S'\xc8\xb3i\x9b|ty@'
p3619
tp3620
Rp3621
ag13
(g17
S'\x86\x9f\x83\xbe\xeb|>@'
p3622
tp3623
Rp3624
aI0
aI0
aI0
aI0
aI0
aa(lp3625
I00
aI00
a(lp3626
(lp3627
(lp3628
F140.0
aF414.0
aa(lp3629
F0.0
aF0.0
aa(lp3630
F0.0
aF0.0
aa(lp3631
F0.0
aF0.0
aaa(lp3632
(lp3633
F747.0
aF414.0
aa(lp3634
F0.0
aF0.0
aa(lp3635
F0.0
aF0.0
aa(lp3636
F0.0
aF0.0
aaaag13
(g17
S'-#\x1dnk\xa2a@'
p3637
tp3638
Rp3639
ag13
(g17
S'\xa7\x93"\x0b\x18\x1a\x87@'
p3640
tp3641
Rp3642
ag13
(g17
S'\x9b\xf1\xf7~{uy@'
p3643
tp3644
Rp3645
ag13
(g17
S'\x03\xc1\x94\x19\xb0wy@'
p3646
tp3647
Rp3648
ag13
(g17
S'\x12\x83W,\xbas>@'
p3649
tp3650
Rp3651
aI0
aI0
aI0
aI0
aI0
aa(lp3652
I00
aI00
a(lp3653
(lp3654
(lp3655
F140.0
aF415.0
aa(lp3656
F0.0
aF0.0
aa(lp3657
F0.0
aF0.0
aa(lp3658
F0.0
aF0.0
aaa(lp3659
(lp3660
F749.0
aF415.0
aa(lp3661
F0.0
aF0.0
aa(lp3662
F0.0
aF0.0
aa(lp3663
F0.0
aF0.0
aaaag13
(g17
S'\xf4\xf2\x19p\xb8\x9da@'
p3664
tp3665
Rp3666
ag13
(g17
S'\xb4?\xc5\x14\xbb\x1f\x87@'
p3667
tp3668
Rp3669
ag13
(g17
S'\xf3\xa2a\xdd-zy@'
p3670
tp3671
Rp3672
ag13
(g17
S'\xfa\x1b\xdf\x9aA|y@'
p3673
tp3674
Rp3675
ag13
(g17
S'\x16\x9e\x9d\x87\xa5h>@'
p3676
tp3677
Rp3678
aI0
aI0
aI0
aI0
aI0
aa(lp3679
I00
aI00
a(lp3680
(lp3681
(lp3682
F138.0
aF416.0
aa(lp3683
F0.0
aF0.0
aa(lp3684
F0.0
aF0.0
aa(lp3685
F0.0
aF0.0
aaa(lp3686
(lp3687
F748.0
aF416.0
aa(lp3688
F0.0
aF0.0
aa(lp3689
F0.0
aF0.0
aa(lp3690
F0.0
aF0.0
aaaag13
(g17
S'^:=!q\x96a@'
p3691
tp3692
Rp3693
ag13
(g17
S'\xafa\x89\x8c\x82%\x87@'
p3694
tp3695
Rp3696
ag13
(g17
S'ZP\xbe\x0cH\x81y@'
p3697
tp3698
Rp3699
ag13
(g17
S'\xad\xd9\xbeN\x89\x82y@'
p3700
tp3701
Rp3702
ag13
(g17
S'^\xb3\x8d\x9cR\\>@'
p3703
tp3704
Rp3705
aI0
aI0
aI0
aI0
aI0
aa(lp3706
I00
aI00
a(lp3707
(lp3708
(lp3709
F134.0
aF417.0
aa(lp3710
F0.0
aF0.0
aa(lp3711
F0.0
aF0.0
aa(lp3712
F0.0
aF0.0
aaa(lp3713
(lp3714
F745.0
aF416.0
aa(lp3715
F0.0
aF0.0
aa(lp3716
F0.0
aF0.0
aa(lp3717
F0.0
aF0.0
aaaag13
(g17
S'Y\x89X\xeb\x9f\x8da@'
p3718
tp3719
Rp3720
ag13
(g17
S'\x0f\x91l\xd3h+\x87@'
p3721
tp3722
Rp3723
ag13
(g17
S'\xf0j\xa2\xbb\x11\x8by@'
p3724
tp3725
Rp3726
ag13
(g17
S'\xf0j\xa2\xbb\x11\x8by@'
p3727
tp3728
Rp3729
ag13
(g17
S'\x0eT\x9f\xfd8O>@'
p3730
tp3731
Rp3732
aI0
aI0
aI0
aI0
aI0
aa(lp3733
I00
aI00
a(lp3734
(lp3735
(lp3736
F129.0
aF418.0
aa(lp3737
F0.0
aF0.0
aa(lp3738
F0.0
aF0.0
aa(lp3739
F0.0
aF0.0
aaa(lp3740
(lp3741
F741.0
aF417.0
aa(lp3742
F0.0
aF0.0
aa(lp3743
F0.0
aF0.0
aa(lp3744
F0.0
aF0.0
aaaag13
(g17
S'_b\xb1w\xaa\x84a@'
p3745
tp3746
Rp3747
ag13
(g17
S'\xf7\xd4\x06\xd1\xb01\x87@'
p3748
tp3749
Rp3750
ag13
(g17
S'&\x8c\xf9:\x9f\x97y@'
p3751
tp3752
Rp3753
ag13
(g17
S'\xd3\x02\xf9\xf8]\x96y@'
p3754
tp3755
Rp3756
ag13
(g17
S'^T$\xe7~A>@'
p3757
tp3758
Rp3759
aI0
aI0
aI0
aI0
aI0
aa(lp3760
I00
aI00
a(lp3761
(lp3762
(lp3763
F122.0
aF418.0
aa(lp3764
F0.0
aF0.0
aa(lp3765
F0.0
aF0.0
aa(lp3766
F0.0
aF0.0
aaa(lp3767
(lp3768
F735.0
aF418.0
aa(lp3769
F0.0
aF0.0
aa(lp3770
F0.0
aF0.0
aa(lp3771
F0.0
aF0.0
aaaag13
(g17
S'\xb1\xae\xbe\x90N|a@'
p3772
tp3773
Rp3774
ag13
(g17
S'f:\xa42\x9e8\x87@'
p3775
tp3776
Rp3777
ag13
(g17
S'?\t\x12\xda\xad\xa6y@'
p3778
tp3779
Rp3780
ag13
(g17
S'M\xd5\xed\x99\x8c\xa4y@'
p3781
tp3782
Rp3783
ag13
(g17
S'\xd4\xdd\xf6\xb7\x053>@'
p3784
tp3785
Rp3786
aI0
aI0
aI0
aI0
aI0
aa(lp3787
I00
aI00
a(lp3788
(lp3789
(lp3790
F113.0
aF418.0
aa(lp3791
F0.0
aF0.0
aa(lp3792
F0.0
aF0.0
aa(lp3793
F0.0
aF0.0
aaa(lp3794
(lp3795
F727.0
aF419.0
aa(lp3796
F0.0
aF0.0
aa(lp3797
F0.0
aF0.0
aa(lp3798
F0.0
aF0.0
aaaag13
(g17
S'\xa8W\x07D>sa@'
p3799
tp3800
Rp3801
ag13
(g17
S'\xd76%z\xf9?\x87@'
p3802
tp3803
Rp3804
ag13
(g17
S'\x18\x06\xee\x96\xa2\xb7y@'
p3805
tp3806
Rp3807
ag13
(g17
S'K\xef\x85\xf4\x13\xb5y@'
p3808
tp3809
Rp3810
ag13
(g17
S'\xa3\xc6\x12\x00\xa3#>@'
p3811
tp3812
Rp3813
aI0
aI0
aI0
aI0
aI0
aa(lp3814
I00
aI00
a(lp3815
(lp3816
(lp3817
F103.0
aF419.0
aa(lp3818
F0.0
aF0.0
aa(lp3819
F0.0
aF0.0
aa(lp3820
F0.0
aF0.0
aaa(lp3821
(lp3822
F718.0
aF420.0
aa(lp3823
F0.0
aF0.0
aa(lp3824
F0.0
aF0.0
aa(lp3825
F0.0
aF0.0
aaaag13
(g17
S'\x82\xfd\xf6}\xf3da@'
p3826
tp3827
Rp3828
ag13
(g17
S'\xb5\xd9\xfc\x02\xa0F\x87@'
p3829
tp3830
Rp3831
ag13
(g17
S'I\t\x1eO\x9b\xc9y@'
p3832
tp3833
Rp3834
ag13
(g17
S'K\xe5\x8d\x9e\xd3\xc6y@'
p3835
tp3836
Rp3837
ag13
(g17
S'\xbf\x8cLf[\x13>@'
p3838
tp3839
Rp3840
aI0
aI0
aI0
aI0
aI0
aa(lp3841
I00
aI00
a(lp3842
(lp3843
(lp3844
F95.0
aF420.0
aa(lp3845
F0.0
aF0.0
aa(lp3846
F0.0
aF0.0
aa(lp3847
F0.0
aF0.0
aaa(lp3848
(lp3849
F710.0
aF421.0
aa(lp3850
F0.0
aF0.0
aa(lp3851
F0.0
aF0.0
aa(lp3852
F0.0
aF0.0
aaaag13
(g17
S'\x84\xf8Z \x92Ia@'
p3853
tp3854
Rp3855
ag13
(g17
S'!\xbe\x16\x88dJ\x87@'
p3856
tp3857
Rp3858
ag13
(g17
S'#\x07=\xe7\x90\xdby@'
p3859
tp3860
Rp3861
ag13
(g17
S'\x82&\x9f\xd2y\xd8y@'
p3862
tp3863
Rp3864
ag13
(g17
S'\xa5\x96\xe7\xb3\x87\x02>@'
p3865
tp3866
Rp3867
aI0
aI0
aI0
aI0
aI0
aa(lp3868
I00
aI00
a(lp3869
(lp3870
(lp3871
F88.0
aF420.0
aa(lp3872
F0.0
aF0.0
aa(lp3873
F0.0
aF0.0
aa(lp3874
F0.0
aF0.0
aaa(lp3875
(lp3876
F704.0
aF422.0
aa(lp3877
F0.0
aF0.0
aa(lp3878
F0.0
aF0.0
aa(lp3879
F0.0
aF0.0
aaaag13
(g17
S'ze\xfe\xd6\x1e\x17a@'
p3880
tp3881
Rp3882
ag13
(g17
S'\n\x7f@\x92dH\x87@'
p3883
tp3884
Rp3885
ag13
(g17
S')\x9bK\xdb\x90\xecy@'
p3886
tp3887
Rp3888
ag13
(g17
S'\xb9G\xf6Q\x07\xe9y@'
p3889
tp3890
Rp3891
ag13
(g17
S'D\xbe2\xc8\xc6\xf1=@'
p3892
tp3893
Rp3894
aI0
aI0
aI0
aI0
aI0
aa(lp3895
I00
aI00
a(lp3896
(lp3897
(lp3898
F84.0
aF421.0
aa(lp3899
F0.0
aF0.0
aa(lp3900
F0.0
aF0.0
aa(lp3901
F0.0
aF0.0
aaa(lp3902
(lp3903
F698.0
aF422.0
aa(lp3904
F0.0
aF0.0
aa(lp3905
F0.0
aF0.0
aa(lp3906
F0.0
aF0.0
aaaag13
(g17
S'\x1f\x8a\x0c\xe3\xd2\xc3`@'
p3907
tp3908
Rp3909
ag13
(g17
S'&dL\x0e\xc4=\x87@'
p3910
tp3911
Rp3912
ag13
(g17
S'\xbb\xa4\x88\xff\xeb\xfby@'
p3913
tp3914
Rp3915
ag13
(g17
S'E\xe3:\xe9+\xf8y@'
p3916
tp3917
Rp3918
ag13
(g17
S'\x173ch\xbf\xe1=@'
p3919
tp3920
Rp3921
aI0
aI0
aI0
aI0
aI0
aa(lp3922
I00
aI00
a(lp3923
(lp3924
(lp3925
F81.0
aF420.0
aa(lp3926
F0.0
aF0.0
aa(lp3927
F0.0
aF0.0
aa(lp3928
F0.0
aF0.0
aaa(lp3929
(lp3930
F697.0
aF422.0
aa(lp3931
F0.0
aF0.0
aa(lp3932
F0.0
aF0.0
aa(lp3933
F0.0
aF0.0
aaaag13
(g17
S'\xc3\xddsY\xeeH`@'
p3934
tp3935
Rp3936
ag13
(g17
S'\x05\xc5\x02\x04\x84(\x87@'
p3937
tp3938
Rp3939
ag13
(g17
S'\xc2\xf6\xed%R\tz@'
p3940
tp3941
Rp3942
ag13
(g17
S'\xe1\x80\x94\xabI\x06z@'
p3943
tp3944
Rp3945
ag13
(g17
S'z\x81\x99\xd6\xea\xd2=@'
p3946
tp3947
Rp3948
aI0
aI0
aI0
aI0
aI0
aa(lp3949
I00
aI00
a(lp3950
(lp3951
(lp3952
F81.0
aF420.0
aa(lp3953
F0.0
aF0.0
aa(lp3954
F0.0
aF0.0
aa(lp3955
F0.0
aF0.0
aaa(lp3956
(lp3957
F697.0
aF422.0
aa(lp3958
F0.0
aF0.0
aa(lp3959
F0.0
aF0.0
aa(lp3960
F0.0
aF0.0
aaaag13
(g17
S'\xa9B\xa0%nJ_@'
p3961
tp3962
Rp3963
ag13
(g17
S'\xd1&@\xdd!\x08\x87@'
p3964
tp3965
Rp3966
ag13
(g17
S'\xf3\x836\xb1\xdf\x14z@'
p3967
tp3968
Rp3969
ag13
(g17
S'\x8e\xf6P\x8e\x07\x14z@'
p3970
tp3971
Rp3972
ag13
(g17
S'z\x9a\x05\x9e\x96\xc5=@'
p3973
tp3974
Rp3975
aI0
aI0
aI0
aI0
aI0
aa(lp3976
I00
aI00
a(lp3977
(lp3978
(lp3979
F82.0
aF419.0
aa(lp3980
F0.0
aF0.0
aa(lp3981
F0.0
aF0.0
aa(lp3982
F0.0
aF0.0
aaa(lp3983
(lp3984
F697.0
aF421.0
aa(lp3985
F0.0
aF0.0
aa(lp3986
F0.0
aF0.0
aa(lp3987
F0.0
aF0.0
aaaag13
(g17
S'\xf5)\xec\xed\xd4\xbc]@'
p3988
tp3989
Rp3990
ag13
(g17
S'\x91A \xf4\xe8\xdd\x86@'
p3991
tp3992
Rp3993
ag13
(g17
S'C\x07\xcb\x99\xf3\x1ez@'
p3994
tp3995
Rp3996
ag13
(g17
S'\x12\x0e\xdd6\xd7!z@'
p3997
tp3998
Rp3999
ag13
(g17
S'.k\xa3z\xf6\xb9=@'
p4000
tp4001
Rp4002
aI0
aI0
aI0
aI0
aI0
aa(lp4003
I00
aI00
a(lp4004
(lp4005
(lp4006
F85.0
aF418.0
aa(lp4007
F0.0
aF0.0
aa(lp4008
F0.0
aF0.0
aa(lp4009
F0.0
aF0.0
aaa(lp4010
(lp4011
F698.0
aF419.0
aa(lp4012
F0.0
aF0.0
aa(lp4013
F0.0
aF0.0
aa(lp4014
F0.0
aF0.0
aaaag13
(g17
S'\xc1O2\xda*\x02\\@'
p4015
tp4016
Rp4017
ag13
(g17
S'\xbdZ\x07\xc0\xe2\xac\x86@'
p4018
tp4019
Rp4020
ag13
(g17
S"U\x0bf{\xee'z@"
p4021
tp4022
Rp4023
ag13
(g17
S'\x9c\xb84\xf8\xa5/z@'
p4024
tp4025
Rp4026
ag13
(g17
S'\x00;\x85\x18.\xb0=@'
p4027
tp4028
Rp4029
aI0
aI0
aI0
aI0
aI0
aa(lp4030
I00
aI00
a(lp4031
(lp4032
(lp4033
F87.0
aF417.0
aa(lp4034
F0.0
aF0.0
aa(lp4035
F0.0
aF0.0
aa(lp4036
F0.0
aF0.0
aaa(lp4037
(lp4038
F698.0
aF418.0
aa(lp4039
F0.0
aF0.0
aa(lp4040
F0.0
aF0.0
aa(lp4041
F0.0
aF0.0
aaaag13
(g17
S'\xafH+\xa1v=Z@'
p4042
tp4043
Rp4044
ag13
(g17
S'\r\xc5\xb3\x07Xy\x86@'
p4045
tp4046
Rp4047
ag13
(g17
S'YMg\xf2\xe6/z@'
p4048
tp4049
Rp4050
ag13
(g17
S'\xcc\xb1"[\xc2<z@'
p4051
tp4052
Rp4053
ag13
(g17
S'\xcf\x93\x86\xef^\xa8=@'
p4054
tp4055
Rp4056
aI0
aI0
aI0
aI0
aI0
aa(lp4057
I00
aI00
a(lp4058
(lp4059
(lp4060
F91.0
aF415.0
aa(lp4061
F0.0
aF0.0
aa(lp4062
F0.0
aF0.0
aa(lp4063
F0.0
aF0.0
aaa(lp4064
(lp4065
F700.0
aF416.0
aa(lp4066
F0.0
aF0.0
aa(lp4067
F0.0
aF0.0
aa(lp4068
F0.0
aF0.0
aaaag13
(g17
S'\xed;\x1d\xe3w\x95X@'
p4069
tp4070
Rp4071
ag13
(g17
S'y\xadg\x1e\x0cH\x86@'
p4072
tp4073
Rp4074
ag13
(g17
S'{Sa\xfev6z@'
p4075
tp4076
Rp4077
ag13
(g17
S'v,;\xbd\x06Hz@'
p4078
tp4079
Rp4080
ag13
(g17
S' 7\x16\xe7\xa5\xa2=@'
p4081
tp4082
Rp4083
aI0
aI0
aI0
aI0
aI0
aa(lp4084
I00
aI00
a(lp4085
(lp4086
(lp4087
F94.0
aF413.0
aa(lp4088
F0.0
aF0.0
aa(lp4089
F0.0
aF0.0
aa(lp4090
F0.0
aF0.0
aaa(lp4091
(lp4092
F703.0
aF415.0
aa(lp4093
F0.0
aF0.0
aa(lp4094
F0.0
aF0.0
aa(lp4095
F0.0
aF0.0
aaaag13
(g17
S'h\x0eJ\xf77-W@'
p4096
tp4097
Rp4098
ag13
(g17
S'\x0fi\x8b\xf9B\x1d\x86@'
p4099
tp4100
Rp4101
ag13
(g17
S'\xd2\x14!b\xd4:z@'
p4102
tp4103
Rp4104
ag13
(g17
S'\xcfT\xcf#%Pz@'
p4105
tp4106
Rp4107
ag13
(g17
S'\x003H\xf5-\x9f=@'
p4108
tp4109
Rp4110
aI0
aI0
aI0
aI0
aI0
aa(lp4111
I00
aI00
a(lp4112
(lp4113
(lp4114
F100.0
aF412.0
aa(lp4115
F0.0
aF0.0
aa(lp4116
F0.0
aF0.0
aa(lp4117
F0.0
aF0.0
aaa(lp4118
(lp4119
F705.0
aF413.0
aa(lp4120
F0.0
aF0.0
aa(lp4121
F0.0
aF0.0
aa(lp4122
F0.0
aF0.0
aaaag13
(g17
S'\xea\xdcu\xc8\xc4\x1dV@'
p4123
tp4124
Rp4125
ag13
(g17
S'\xca\xbb\x9e\xf9\xe4\xfb\x85@'
p4126
tp4127
Rp4128
ag13
(g17
S'j\xbc\xae\xcf\x0b<z@'
p4129
tp4130
Rp4131
ag13
(g17
S'F\x16\x1d:\xe5Sz@'
p4132
tp4133
Rp4134
ag13
(g17
S'\xc8\x1cvBN\x9e=@'
p4135
tp4136
Rp4137
aI0
aI0
aI0
aI0
aI0
aa(lp4138
I00
aI00
a(lp4139
(lp4140
(lp4141
F106.0
aF410.0
aa(lp4142
F0.0
aF0.0
aa(lp4143
F0.0
aF0.0
aa(lp4144
F0.0
aF0.0
aaa(lp4145
(lp4146
F710.0
aF410.0
aa(lp4147
F0.0
aF0.0
aa(lp4148
F0.0
aF0.0
aa(lp4149
F0.0
aF0.0
aaaag13
(g17
S'\\p\x99~\x0esU@'
p4150
tp4151
Rp4152
ag13
(g17
S'\xb3hT\x9e\x1a\xe5\x85@'
p4153
tp4154
Rp4155
ag13
(g17
S'\xf7x\xf0\xf6I9z@'
p4156
tp4157
Rp4158
ag13
(g17
S'(r\xdeYfRz@'
p4159
tp4160
Rp4161
ag13
(g17
S'\xb6\x8bzk\x8a\xa0=@'
p4162
tp4163
Rp4164
aI0
aI0
aI0
aI0
aI0
aa(lp4165
I00
aI00
a(lp4166
(lp4167
(lp4168
F114.0
aF408.0
aa(lp4169
F0.0
aF0.0
aa(lp4170
F0.0
aF0.0
aa(lp4171
F0.0
aF0.0
aaa(lp4172
(lp4173
F714.0
aF408.0
aa(lp4174
F0.0
aF0.0
aa(lp4175
F0.0
aF0.0
aa(lp4176
F0.0
aF0.0
aaaag13
(g17
S'\xee\xac\xe2\xb7n,U@'
p4177
tp4178
Rp4179
ag13
(g17
S'\x0e\x81\x13\xfej\xd8\x85@'
p4180
tp4181
Rp4182
ag13
(g17
S'\xbck\xc5x\x162z@'
p4183
tp4184
Rp4185
ag13
(g17
S'\x137\xc71PKz@'
p4186
tp4187
Rp4188
ag13
(g17
S'\xda]\xe5{~\xa6=@'
p4189
tp4190
Rp4191
aI0
aI0
aI0
aI0
aI0
aa(lp4192
I00
aI00
a(lp4193
(lp4194
(lp4195
F120.0
aF407.0
aa(lp4196
F0.0
aF0.0
aa(lp4197
F0.0
aF0.0
aa(lp4198
F0.0
aF0.0
aaa(lp4199
(lp4200
F719.0
aF408.0
aa(lp4201
F0.0
aF0.0
aa(lp4202
F0.0
aF0.0
aa(lp4203
F0.0
aF0.0
aaaag13
(g17
S'\xa7\xbb\x92K{@U@'
p4204
tp4205
Rp4206
ag13
(g17
S'D"\x8c\xd1c\xd4\x85@'
p4207
tp4208
Rp4209
ag13
(g17
S'6\xf8\xe9\xfdb&z@'
p4210
tp4211
Rp4212
ag13
(g17
S'j\x0c\xc1@\xca>z@'
p4213
tp4214
Rp4215
ag13
(g17
S'-\x00\x14\xb3\x99\xb0=@'
p4216
tp4217
Rp4218
aI0
aI0
aI0
aI0
aI0
aa(lp4219
I00
aI00
a(lp4220
(lp4221
(lp4222
F124.0
aF407.0
aa(lp4223
F0.0
aF0.0
aa(lp4224
F0.0
aF0.0
aa(lp4225
F0.0
aF0.0
aaa(lp4226
(lp4227
F723.0
aF408.0
aa(lp4228
F0.0
aF0.0
aa(lp4229
F0.0
aF0.0
aa(lp4230
F0.0
aF0.0
aaaag13
(g17
S'\xbc\x1f*\x1bp\xa2U@'
p4231
tp4232
Rp4233
ag13
(g17
S'\x01\xf8\xd0\x12m\xd7\x85@'
p4234
tp4235
Rp4236
ag13
(g17
S'm\xcdUZz\x16z@'
p4237
tp4238
Rp4239
ag13
(g17
S'p*\xe8\x07_-z@'
p4240
tp4241
Rp4242
ag13
(g17
S'!\xdf\x96\xa3\xe3\xbe=@'
p4243
tp4244
Rp4245
aI0
aI0
aI0
aI0
aI0
aa(lp4246
I00
aI00
a(lp4247
(lp4248
(lp4249
F128.0
aF407.0
aa(lp4250
F0.0
aF0.0
aa(lp4251
F0.0
aF0.0
aa(lp4252
F0.0
aF0.0
aaa(lp4253
(lp4254
F729.0
aF408.0
aa(lp4255
F0.0
aF0.0
aa(lp4256
F0.0
aF0.0
aa(lp4257
F0.0
aF0.0
aaaag13
(g17
S'\xbe\x8e.\xe2\xdaFV@'
p4258
tp4259
Rp4260
ag13
(g17
S'\x9f\xb4Y\x93\\\xe0\x85@'
p4261
tp4262
Rp4263
ag13
(g17
S'9\xc3\xc0l\xef\x02z@'
p4264
tp4265
Rp4266
ag13
(g17
S'\xfe\xac\x96t\xe0\x17z@'
p4267
tp4268
Rp4269
ag13
(g17
S'\xb5i\xa2\xd5\xfd\xd0=@'
p4270
tp4271
Rp4272
aI0
aI0
aI0
aI0
aI0
aa(lp4273
I00
aI00
a(lp4274
(lp4275
(lp4276
F136.0
aF408.0
aa(lp4277
F0.0
aF0.0
aa(lp4278
F0.0
aF0.0
aa(lp4279
F0.0
aF0.0
aaa(lp4280
(lp4281
F737.0
aF408.0
aa(lp4282
F0.0
aF0.0
aa(lp4283
F0.0
aF0.0
aa(lp4284
F0.0
aF0.0
aaaag13
(g17
S'\x17\x95G\xbb\xf6$W@'
p4285
tp4286
Rp4287
ag13
(g17
S'\xbe3\xea\xbf\x9a\xee\x85@'
p4288
tp4289
Rp4290
ag13
(g17
S'\x14V\xf2]\x9e\xecy@'
p4291
tp4292
Rp4293
ag13
(g17
S'\x85\x831\x80^\xffy@'
p4294
tp4295
Rp4296
ag13
(g17
S'\xfbEXY+\xe6=@'
p4297
tp4298
Rp4299
aI0
aI0
aI0
aI0
aI0
aa(lp4300
I00
aI00
a(lp4301
(lp4302
(lp4303
F145.0
aF408.0
aa(lp4304
F0.0
aF0.0
aa(lp4305
F0.0
aF0.0
aa(lp4306
F0.0
aF0.0
aaa(lp4307
(lp4308
F744.0
aF408.0
aa(lp4309
F0.0
aF0.0
aa(lp4310
F0.0
aF0.0
aa(lp4311
F0.0
aF0.0
aaaag13
(g17
S'\xb805\xd8\x1d5X@'
p4312
tp4313
Rp4314
ag13
(g17
S'\xe2\xb8\x1a\xd5\xe8\x01\x86@'
p4315
tp4316
Rp4317
ag13
(g17
S'I\xff\xdb\xf9\xbe\xd4y@'
p4318
tp4319
Rp4320
ag13
(g17
S')\x08M\xc17\xe5y@'
p4321
tp4322
Rp4323
ag13
(g17
S'\xc6\x03^\x84Y\xfd=@'
p4324
tp4325
Rp4326
aI0
aI0
aI0
aI0
aI0
aa(lp4327
I00
aI00
a(lp4328
(lp4329
(lp4330
F149.0
aF408.0
aa(lp4331
F0.0
aF0.0
aa(lp4332
F0.0
aF0.0
aa(lp4333
F0.0
aF0.0
aaa(lp4334
(lp4335
F750.0
aF408.0
aa(lp4336
F0.0
aF0.0
aa(lp4337
F0.0
aF0.0
aa(lp4338
F0.0
aF0.0
aaaag13
(g17
S'M\xde\xad\xe3tnY@'
p4339
tp4340
Rp4341
ag13
(g17
S'w\xb3 \xce(\x1a\x86@'
p4342
tp4343
Rp4344
ag13
(g17
S'h\x12\xa2v\xe6\xbcy@'
p4345
tp4346
Rp4347
ag13
(g17
S'\n\xcd)$4\xcby@'
p4348
tp4349
Rp4350
ag13
(g17
S'\xbeR\xdek\xfe\x14>@'
p4351
tp4352
Rp4353
aI0
aI0
aI0
aI0
aI0
aa(lp4354
I00
aI00
a(lp4355
(lp4356
(lp4357
F154.0
aF409.0
aa(lp4358
F0.0
aF0.0
aa(lp4359
F0.0
aF0.0
aa(lp4360
F0.0
aF0.0
aaag4334
aag13
(g17
S'uI\xaePS\xc6Z@'
p4361
tp4362
Rp4363
ag13
(g17
S'\xa4Qg\x0187\x86@'
p4364
tp4365
Rp4366
ag13
(g17
S'\x9a\x84\x0f\xcc\xeb\xa6y@'
p4367
tp4368
Rp4369
ag13
(g17
S'\xa2\xfe\x85ed\xb3y@'
p4370
tp4371
Rp4372
ag13
(g17
S'$\xd3\xd0\xdb1+>@'
p4373
tp4374
Rp4375
aI0
aI0
aI0
aI0
aI0
aa(lp4376
I00
aI00
a(lp4377
(lp4378
(lp4379
F158.0
aF410.0
aa(lp4380
F0.0
aF0.0
aa(lp4381
F0.0
aF0.0
aa(lp4382
F0.0
aF0.0
aaa(lp4383
(lp4384
F763.0
aF410.0
aa(lp4385
F0.0
aF0.0
aa(lp4386
F0.0
aF0.0
aa(lp4387
F0.0
aF0.0
aaaag13
(g17
S'\xef\xb9\xf2\xe0\x851\\@'
p4388
tp4389
Rp4390
ag13
(g17
S'\x12\xb0CT\xe6X\x86@'
p4391
tp4392
Rp4393
ag13
(g17
S'\x18S\xeb\xc8\x94\x94y@'
p4394
tp4395
Rp4396
ag13
(g17
S'h\xd7\xc2\x8c\xa9\x9fy@'
p4397
tp4398
Rp4399
ag13
(g17
S'\xed\x85-s\xfa=>@'
p4400
tp4401
Rp4402
aI0
aI0
aI0
aI0
aI0
aa(lp4403
I00
aI00
a(lp4404
(lp4405
(lp4406
F164.0
aF410.0
aa(lp4407
F0.0
aF0.0
aa(lp4408
F0.0
aF0.0
aa(lp4409
F0.0
aF0.0
aaa(lp4410
(lp4411
F765.0
aF410.0
aa(lp4412
F0.0
aF0.0
aa(lp4413
F0.0
aF0.0
aa(lp4414
F0.0
aF0.0
aaaag13
(g17
S'\xbd\xe3d\xca\xfb\xa6]@'
p4415
tp4416
Rp4417
ag13
(g17
S'\x81\xe7=O\xdb~\x86@'
p4418
tp4419
Rp4420
ag13
(g17
S'\x0cn\xba\x89/\x87y@'
p4421
tp4422
Rp4423
ag13
(g17
S'I\xe1v/#\x91y@'
p4424
tp4425
Rp4426
ag13
(g17
S'\xc1u\x03\x14\x06L>@'
p4427
tp4428
Rp4429
aI0
aI0
aI0
aI0
aI0
aa(lp4430
I00
aI00
a(lp4431
(lp4432
(lp4433
F167.0
aF411.0
aa(lp4434
F0.0
aF0.0
aa(lp4435
F0.0
aF0.0
aa(lp4436
F0.0
aF0.0
aaa(lp4437
(lp4438
F765.0
aF410.0
aa(lp4439
F0.0
aF0.0
aa(lp4440
F0.0
aF0.0
aa(lp4441
F0.0
aF0.0
aaaag13
(g17
S'\x80[a\x86R!_@'
p4442
tp4443
Rp4444
ag13
(g17
S"\x9e\xc6Z'\x91\xa8\x86@"
p4445
tp4446
Rp4447
ag13
(g17
S'7\xd3\x99\xf8K\x7fy@'
p4448
tp4449
Rp4450
ag13
(g17
S'X}D2\xf8\x87y@'
p4451
tp4452
Rp4453
ag13
(g17
S'b\xcf\xe3>\tU>@'
p4454
tp4455
Rp4456
aI0
aI0
aI0
aI0
aI0
aa(lp4457
I00
aI00
a(lp4458
(lp4459
(lp4460
F166.0
aF411.0
aa(lp4461
F0.0
aF0.0
aa(lp4462
F0.0
aF0.0
aa(lp4463
F0.0
aF0.0
aaa(lp4464
(lp4465
F765.0
aF410.0
aa(lp4466
F0.0
aF0.0
aa(lp4467
F0.0
aF0.0
aa(lp4468
F0.0
aF0.0
aaaag13
(g17
S'\xe2\xe4\x8d\n\xd8N`@'
p4469
tp4470
Rp4471
ag13
(g17
S'\xae\xc1\xe4\x82?\xd5\x86@'
p4472
tp4473
Rp4474
ag13
(g17
S'\xca\x06\xd3&\x9c|y@'
p4475
tp4476
Rp4477
ag13
(g17
S'\x05:\xd3`|\x83y@'
p4478
tp4479
Rp4480
ag13
(g17
S'\x19,O\x7f\xabY>@'
p4481
tp4482
Rp4483
aI0
aI0
aI0
aI0
aI0
aa(lp4484
I00
aI00
a(lp4485
g4459
a(lp4486
(lp4487
F762.0
aF410.0
aa(lp4488
F0.0
aF0.0
aa(lp4489
F0.0
aF0.0
aa(lp4490
F0.0
aF0.0
aaaag13
(g17
S's\x9c\xf7;a\x0ca@'
p4491
tp4492
Rp4493
ag13
(g17
S'\xc9\x1c\xd8\xe0\xa2\x03\x87@'
p4494
tp4495
Rp4496
ag13
(g17
S'\xb4\xdcT\xdf1~y@'
p4497
tp4498
Rp4499
ag13
(g17
S'\x83O\x0cT\xa4\x82y@'
p4500
tp4501
Rp4502
ag13
(g17
S'h\x84WfH[>@'
p4503
tp4504
Rp4505
aI0
aI0
aI0
aI0
aI0
aa(lp4506
I00
aI00
a(lp4507
(lp4508
(lp4509
F157.0
aF411.0
aa(lp4510
F0.0
aF0.0
aa(lp4511
F0.0
aF0.0
aa(lp4512
F0.0
aF0.0
aaa(lp4513
(lp4514
F758.0
aF410.0
aa(lp4515
F0.0
aF0.0
aa(lp4516
F0.0
aF0.0
aa(lp4517
F0.0
aF0.0
aaaag13
(g17
S'2?\x95\xbd\xd2\xc5a@'
p4518
tp4519
Rp4520
ag13
(g17
S'\x82=\x13\x80\x042\x87@'
p4521
tp4522
Rp4523
ag13
(g17
S'@\xe4>N\xe5\x82y@'
p4524
tp4525
Rp4526
ag13
(g17
S'\xc3 \x9e\x82}\x84y@'
p4527
tp4528
Rp4529
ag13
(g17
S'\xbb#%\x18@[>@'
p4530
tp4531
Rp4532
aI0
aI0
aI0
aI0
aI0
aa(lp4533
I00
aI00
a(lp4534
(lp4535
(lp4536
F151.0
aF411.0
aa(lp4537
F0.0
aF0.0
aa(lp4538
F0.0
aF0.0
aa(lp4539
F0.0
aF0.0
aaa(lp4540
(lp4541
F752.0
aF411.0
aa(lp4542
F0.0
aF0.0
aa(lp4543
F0.0
aF0.0
aa(lp4544
F0.0
aF0.0
aaaag13
(g17
S'>\xb9\xe0\x92\xa6ub@'
p4545
tp4546
Rp4547
ag13
(g17
S'\xa1^(\xadE^\x87@'
p4548
tp4549
Rp4550
ag13
(g17
S'\x05\x1d\xe4\xeb\x93\x89y@'
p4551
tp4552
Rp4553
ag13
(g17
S"\xc7\xd8<'E\x88y@"
p4554
tp4555
Rp4556
ag13
(g17
S'\xc4\xcf[\xba\xc4Z>@'
p4557
tp4558
Rp4559
aI0
aI0
aI0
aI0
aI0
aa(lp4560
I00
aI00
a(lp4561
(lp4562
(lp4563
F145.0
aF411.0
aa(lp4564
F0.0
aF0.0
aa(lp4565
F0.0
aF0.0
aa(lp4566
F0.0
aF0.0
aaa(lp4567
(lp4568
F748.0
aF412.0
aa(lp4569
F0.0
aF0.0
aa(lp4570
F0.0
aF0.0
aa(lp4571
F0.0
aF0.0
aaaag13
(g17
S'\xdcb\xb1\xce\xa3\x14c@'
p4572
tp4573
Rp4574
ag13
(g17
S's"\x07\xa6\xe2\x85\x87@'
p4575
tp4576
Rp4577
ag13
(g17
S'\x8f\xd2\xc0\xdd?\x91y@'
p4578
tp4579
Rp4580
ag13
(g17
S'\x8c\x90\xbffG\x8dy@'
p4581
tp4582
Rp4583
ag13
(g17
S"\xb6h\xbd'\xfcZ>@"
p4584
tp4585
Rp4586
aI0
aI0
aI0
aI0
aI0
aa(lp4587
I00
aI00
a(lp4588
(lp4589
(lp4590
F139.0
aF412.0
aa(lp4591
F0.0
aF0.0
aa(lp4592
F0.0
aF0.0
aa(lp4593
F0.0
aF0.0
aaa(lp4594
(lp4595
F744.0
aF411.0
aa(lp4596
F0.0
aF0.0
aa(lp4597
F0.0
aF0.0
aa(lp4598
F0.0
aF0.0
aaaag13
(g17
S'\x9a\xf1\x08\x8c\x81\x9ac@'
p4599
tp4600
Rp4601
ag13
(g17
S'=\xf7.\xd6\x14\xa6\x87@'
p4602
tp4603
Rp4604
ag13
(g17
S'A\xab{\xc7\x0f\x99y@'
p4605
tp4606
Rp4607
ag13
(g17
S'`*\xe7\x1b\xc6\x92y@'
p4608
tp4609
Rp4610
ag13
(g17
S'\x9e\xab\xac\x84\n]>@'
p4611
tp4612
Rp4613
aI0
aI0
aI0
aI0
aI0
aa(lp4614
I00
aI00
a(lp4615
(lp4616
(lp4617
F137.0
aF412.0
aa(lp4618
F0.0
aF0.0
aa(lp4619
F0.0
aF0.0
aa(lp4620
F0.0
aF0.0
aaa(lp4621
(lp4622
F742.0
aF412.0
aa(lp4623
F0.0
aF0.0
aa(lp4624
F0.0
aF0.0
aa(lp4625
F0.0
aF0.0
aaaag13
(g17
S'\x86\x0e\xf3\xd4\x08\xfec@'
p4626
tp4627
Rp4628
ag13
(g17
S'\xe6uBY8\xbc\x87@'
p4629
tp4630
Rp4631
ag13
(g17
S'\x81Kr^B\xa0y@'
p4632
tp4633
Rp4634
ag13
(g17
S'\x9en\x8e\xe0\x14\x98y@'
p4635
tp4636
Rp4637
ag13
(g17
S'u\xb4IO|a>@'
p4638
tp4639
Rp4640
aI0
aI0
aI0
aI0
aI0
aa(lp4641
I00
aI00
a(lp4642
(lp4643
(lp4644
F136.0
aF412.0
aa(lp4645
F0.0
aF0.0
aa(lp4646
F0.0
aF0.0
aa(lp4647
F0.0
aF0.0
aaag4621
aag13
(g17
S'\xd4\xfb[M\xae5d@'
p4648
tp4649
Rp4650
ag13
(g17
S'v\xcfZ\xefi\xc6\x87@'
p4651
tp4652
Rp4653
ag13
(g17
S'H\x1a\xb7/G\xa6y@'
p4654
tp4655
Rp4656
ag13
(g17
S'\x89\xa9\x14\xe6\xcd\x9cy@'
p4657
tp4658
Rp4659
ag13
(g17
S'y\xdb\xc2~\x84g>@'
p4660
tp4661
Rp4662
aI0
aI0
aI0
aI0
aI0
aa(lp4663
I00
aI00
a(lp4664
(lp4665
(lp4666
F137.0
aF412.0
aa(lp4667
F0.0
aF0.0
aa(lp4668
F0.0
aF0.0
aa(lp4669
F0.0
aF0.0
aaa(lp4670
(lp4671
F742.0
aF412.0
aa(lp4672
F0.0
aF0.0
aa(lp4673
F0.0
aF0.0
aa(lp4674
F0.0
aF0.0
aaaag13
(g17
S'\xaf\xea\xcc\x99\xe39d@'
p4675
tp4676
Rp4677
ag13
(g17
S'\xa9G~\x84-\xc4\x87@'
p4678
tp4679
Rp4680
ag13
(g17
S'\xb6\x10z\x0b\xec\xaay@'
p4681
tp4682
Rp4683
ag13
(g17
S'\x01\x01C\xdb\x00\xa1y@'
p4684
tp4685
Rp4686
ag13
(g17
S'o\x102F\xdcl>@'
p4687
tp4688
Rp4689
aI0
aI0
aI0
aI0
aI0
aa(lp4690
I00
aI00
a(lp4691
(lp4692
(lp4693
F140.0
aF412.0
aa(lp4694
F0.0
aF0.0
aa(lp4695
F0.0
aF0.0
aa(lp4696
F0.0
aF0.0
aaa(lp4697
(lp4698
F743.0
aF411.0
aa(lp4699
F0.0
aF0.0
aa(lp4700
F0.0
aF0.0
aa(lp4701
F0.0
aF0.0
aaaag13
(g17
S'\xa6\x00\x96\xbd,\x08d@'
p4702
tp4703
Rp4704
ag13
(g17
S'\x80\x85\xdb\xe4\xd1\xb6\x87@'
p4705
tp4706
Rp4707
ag13
(g17
S'\r\xe6s\x1af\xaey@'
p4708
tp4709
Rp4710
ag13
(g17
S'y\xb2:\xec\x15\xa5y@'
p4711
tp4712
Rp4713
ag13
(g17
S'\x97\xd8\xbaZ_n>@'
p4714
tp4715
Rp4716
aI0
aI0
aI0
aI0
aI0
aa(lp4717
I00
aI00
a(lp4718
(lp4719
(lp4720
F143.0
aF411.0
aa(lp4721
F0.0
aF0.0
aa(lp4722
F0.0
aF0.0
aa(lp4723
F0.0
aF0.0
aaa(lp4724
(lp4725
F744.0
aF411.0
aa(lp4726
F0.0
aF0.0
aa(lp4727
F0.0
aF0.0
aa(lp4728
F0.0
aF0.0
aaaag13
(g17
S'g\xe3^\xfc.\xa6c@'
p4729
tp4730
Rp4731
ag13
(g17
S'D\x888\xceR\xa1\x87@'
p4732
tp4733
Rp4734
ag13
(g17
S'\xa4\x17\x1a[2\xb1y@'
p4735
tp4736
Rp4737
ag13
(g17
S'D\xec\xefck\xa9y@'
p4738
tp4739
Rp4740
ag13
(g17
S'\\1\xf7x~i>@'
p4741
tp4742
Rp4743
aI0
aI0
aI0
aI0
aI0
aa(lp4744
I00
aI00
a(lp4745
(lp4746
(lp4747
F145.0
aF411.0
aa(lp4748
F0.0
aF0.0
aa(lp4749
F0.0
aF0.0
aa(lp4750
F0.0
aF0.0
aaa(lp4751
(lp4752
F747.0
aF411.0
aa(lp4753
F0.0
aF0.0
aa(lp4754
F0.0
aF0.0
aa(lp4755
F0.0
aF0.0
aaaag13
(g17
S'\x9d\xb9\xaa\x837#c@'
p4756
tp4757
Rp4758
ag13
(g17
S'\x8c\x95`\x91\xb5\x87\x87@'
p4759
tp4760
Rp4761
ag13
(g17
S'\xea\xdfy\x0e\xd6\xb3y@'
p4762
tp4763
Rp4764
ag13
(g17
S').c(\x01\xaey@'
p4765
tp4766
Rp4767
ag13
(g17
S'P[F\x93\xee]>@'
p4768
tp4769
Rp4770
aI0
aI0
aI0
aI0
aI0
aa(lp4771
I00
aI00
a(lp4772
(lp4773
(lp4774
F147.0
aF410.0
aa(lp4775
F0.0
aF0.0
aa(lp4776
F0.0
aF0.0
aa(lp4777
F0.0
aF0.0
aaa(lp4778
(lp4779
F748.0
aF411.0
aa(lp4780
F0.0
aF0.0
aa(lp4781
F0.0
aF0.0
aa(lp4782
F0.0
aF0.0
aaaag13
(g17
S'!*-\x97\x07\x96b@'
p4783
tp4784
Rp4785
ag13
(g17
S'\xc2k\xce\xb9>n\x87@'
p4786
tp4787
Rp4788
ag13
(g17
S'pR\x12\xae\x88\xb6y@'
p4789
tp4790
Rp4791
ag13
(g17
S'\xfb\xe2\x1b\x14l\xb2y@'
p4792
tp4793
Rp4794
ag13
(g17
S'A\xaa\xc3|\tN>@'
p4795
tp4796
Rp4797
aI0
aI0
aI0
aI0
aI0
aa(lp4798
I00
aI00
a(lp4799
(lp4800
(lp4801
F149.0
aF410.0
aa(lp4802
F0.0
aF0.0
aa(lp4803
F0.0
aF0.0
aa(lp4804
F0.0
aF0.0
aaa(lp4805
(lp4806
F749.0
aF410.0
aa(lp4807
F0.0
aF0.0
aa(lp4808
F0.0
aF0.0
aa(lp4809
F0.0
aF0.0
aaaag13
(g17
S'+\xc4j\xfa4\x17b@'
p4810
tp4811
Rp4812
ag13
(g17
S'\x06\x9a\x1bW\x85X\x87@'
p4813
tp4814
Rp4815
ag13
(g17
S'A\xab{\xc7\x0f\xb9y@'
p4816
tp4817
Rp4818
ag13
(g17
S'\xcaK\x913\x02\xb6y@'
p4819
tp4820
Rp4821
ag13
(g17
S'\xff\xfdF\xa4\xf7=>@'
p4822
tp4823
Rp4824
aI0
aI0
aI0
aI0
aI0
aa(lp4825
I00
aI00
a(lp4826
(lp4827
(lp4828
F149.0
aF410.0
aa(lp4829
F0.0
aF0.0
aa(lp4830
F0.0
aF0.0
aa(lp4831
F0.0
aF0.0
aaa(lp4832
(lp4833
F749.0
aF409.0
aa(lp4834
F0.0
aF0.0
aa(lp4835
F0.0
aF0.0
aa(lp4836
F0.0
aF0.0
aaaag13
(g17
S'\xd9Dgp\x89\xbaa@'
p4837
tp4838
Rp4839
ag13
(g17
S'^"\xb9\xa1\xd7H\x87@'
p4840
tp4841
Rp4842
ag13
(g17
S'\xcbU\xd3\x88\xde\xbay@'
p4843
tp4844
Rp4845
ag13
(g17
S'Jv\x06\x02+\xb8y@'
p4846
tp4847
Rp4848
ag13
(g17
S'\x98x\x169\xf41>@'
p4849
tp4850
Rp4851
aI0
aI0
aI0
aI0
aI0
aa(lp4852
I00
aI00
a(lp4853
(lp4854
(lp4855
F149.0
aF409.0
aa(lp4856
F0.0
aF0.0
aa(lp4857
F0.0
aF0.0
aa(lp4858
F0.0
aF0.0
aaa(lp4859
(lp4860
F749.0
aF409.0
aa(lp4861
F0.0
aF0.0
aa(lp4862
F0.0
aF0.0
aa(lp4863
F0.0
aF0.0
aaaag13
(g17
S'+\x7f\xac\xf5\x18\x8aa@'
p4864
tp4865
Rp4866
ag13
(g17
S']\x81\xdde)@\x87@'
p4867
tp4868
Rp4869
ag13
(g17
S'\x9a\xc8\x8a\xfdP\xbby@'
p4870
tp4871
Rp4872
ag13
(g17
S'd\xb2\xb8\xae\xa0\xb8y@'
p4873
tp4874
Rp4875
ag13
(g17
S'F\xd6@%w,>@'
p4876
tp4877
Rp4878
aI0
aI0
aI0
aI0
aI0
aa(lp4879
I00
aI00
a(lp4880
(lp4881
(lp4882
F149.0
aF408.0
aa(lp4883
F0.0
aF0.0
aa(lp4884
F0.0
aF0.0
aa(lp4885
F0.0
aF0.0
aaa(lp4886
(lp4887
F748.0
aF408.0
aa(lp4888
F0.0
aF0.0
aa(lp4889
F0.0
aF0.0
aa(lp4890
F0.0
aF0.0
aaaag13
(g17
S'\x00\x93b\x13\x0e\x85a@'
p4891
tp4892
Rp4893
ag13
(g17
S'1G6\x87!>\x87@'
p4894
tp4895
Rp4896
ag13
(g17
S'\xce\x8d\x92\xaa\xfa\xb9y@'
p4897
tp4898
Rp4899
ag13
(g17
S'b\xd6H_h\xb7y@'
p4900
tp4901
Rp4902
ag13
(g17
S'v\x15\r\x85\xb2->@'
p4903
tp4904
Rp4905
aI0
aI0
aI0
aI0
aI0
aa(lp4906
I00
aI00
a(lp4907
(lp4908
(lp4909
F149.0
aF408.0
aa(lp4910
F0.0
aF0.0
aa(lp4911
F0.0
aF0.0
aa(lp4912
F0.0
aF0.0
aaa(lp4913
(lp4914
F747.0
aF408.0
aa(lp4915
F0.0
aF0.0
aa(lp4916
F0.0
aF0.0
aa(lp4917
F0.0
aF0.0
aaaag13
(g17
S'\x84\x0c\xc3#\xd2\xa1a@'
p4918
tp4919
Rp4920
ag13
(g17
S'u\xa0\xb3\x9djA\x87@'
p4921
tp4922
Rp4923
ag13
(g17
S'\xe0\x9a,\x06\xd1\xb6y@'
p4924
tp4925
Rp4926
ag13
(g17
S'\x8c\x07\xean\xb3\xb4y@'
p4927
tp4928
Rp4929
ag13
(g17
S'\xc1\xd1\xf4\x9e\xf33>@'
p4930
tp4931
Rp4932
aI0
aI0
aI0
aI0
aI0
aa(lp4933
I00
aI00
a(lp4934
(lp4935
(lp4936
F148.0
aF408.0
aa(lp4937
F0.0
aF0.0
aa(lp4938
F0.0
aF0.0
aa(lp4939
F0.0
aF0.0
aaa(lp4940
(lp4941
F747.0
aF408.0
aa(lp4942
F0.0
aF0.0
aa(lp4943
F0.0
aF0.0
aa(lp4944
F0.0
aF0.0
aaaag13
(g17
S'T<\x86\xe5\x8c\xd2a@'
p4945
tp4946
Rp4947
ag13
(g17
S'\xdb\x97\xd2\x1b\x1dH\x87@'
p4948
tp4949
Rp4950
ag13
(g17
S'\x93YO\x95\x19\xb2y@'
p4951
tp4952
Rp4953
ag13
(g17
S'\x8c\x07\xean\xb3\xb0y@'
p4954
tp4955
Rp4956
ag13
(g17
S'\xb1\x02ck\xc0<>@'
p4957
tp4958
Rp4959
aI0
aI0
aI0
aI0
aI0
aa(lp4960
I00
aI00
a(lp4961
(lp4962
(lp4963
F149.0
aF408.0
aa(lp4964
F0.0
aF0.0
aa(lp4965
F0.0
aF0.0
aa(lp4966
F0.0
aF0.0
aaag4940
aag13
(g17
S'B%\xe6\xb3\x7f\tb@'
p4967
tp4968
Rp4969
ag13
(g17
S'8$\r,$P\x87@'
p4970
tp4971
Rp4972
ag13
(g17
S'\xbd\x942\xfa@\xacy@'
p4973
tp4974
Rp4975
ag13
(g17
S'8L\x96d\x83\xaby@'
p4976
tp4977
Rp4978
ag13
(g17
S'\x86\xc3\\\xd0\xeeE>@'
p4979
tp4980
Rp4981
aI0
aI0
aI0
aI0
aI0
aa(lp4982
I00
aI00
a(lp4983
(lp4984
(lp4985
F149.0
aF408.0
aa(lp4986
F0.0
aF0.0
aa(lp4987
F0.0
aF0.0
aa(lp4988
F0.0
aF0.0
aaa(lp4989
(lp4990
F747.0
aF408.0
aa(lp4991
F0.0
aF0.0
aa(lp4992
F0.0
aF0.0
aa(lp4993
F0.0
aF0.0
aaaag13
(g17
S'L#\xde\xe9\x0c<b@'
p4994
tp4995
Rp4996
ag13
(g17
S'\x8ci\xc4\xdf\x9bW\x87@'
p4997
tp4998
Rp4999
ag13
(g17
S'_ExR\xb2\xa5y@'
p5000
tp5001
Rp5002
ag13
(g17
S'W\xcb\x01\xb99\xa5y@'
p5003
tp5004
Rp5005
ag13
(g17
S'O\x83\xc9\nDN>@'
p5006
tp5007
Rp5008
aI0
aI0
aI0
aI0
aI0
aa(lp5009
I00
aI00
a(lp5010
(lp5011
(lp5012
F149.0
aF408.0
aa(lp5013
F0.0
aF0.0
aa(lp5014
F0.0
aF0.0
aa(lp5015
F0.0
aF0.0
aaa(lp5016
(lp5017
F748.0
aF408.0
aa(lp5018
F0.0
aF0.0
aa(lp5019
F0.0
aF0.0
aa(lp5020
F0.0
aF0.0
aaaag13
(g17
S'Ib\xd4z\x15db@'
p5021
tp5022
Rp5023
ag13
(g17
S'\x9aq\xb6\xbb"]\x87@'
p5024
tp5025
Rp5026
ag13
(g17
S'q-?"\xc0\x9ey@'
p5027
tp5028
Rp5029
ag13
(g17
S'\x037|F\x1b\x9ey@'
p5030
tp5031
Rp5032
ag13
(g17
S'\xe74~\xcf\x80U>@'
p5033
tp5034
Rp5035
aI0
aI0
aI0
aI0
aI0
aa(lp5036
I00
aI00
a(lp5037
(lp5038
(lp5039
F150.0
aF408.0
aa(lp5040
F0.0
aF0.0
aa(lp5041
F0.0
aF0.0
aa(lp5042
F0.0
aF0.0
aaa(lp5043
(lp5044
F748.0
aF408.0
aa(lp5045
F0.0
aF0.0
aa(lp5046
F0.0
aF0.0
aa(lp5047
F0.0
aF0.0
aaaag13
(g17
S'\xc4S\xfdL\x85\x7fb@'
p5048
tp5049
Rp5050
ag13
(g17
S'\x19Vx\x18\x15`\x87@'
p5051
tp5052
Rp5053
ag13
(g17
S'G\xad\xce|\xb7\x97y@'
p5054
tp5055
Rp5056
ag13
(g17
S'1\x83\x066\xb1\x96y@'
p5057
tp5058
Rp5059
ag13
(g17
S'\xafK% \xd5[>@'
p5060
tp5061
Rp5062
aI0
aI0
aI0
aI0
aI0
aa(lp5063
I00
aI00
a(lp5064
(lp5065
(lp5066
F150.0
aF408.0
aa(lp5067
F0.0
aF0.0
aa(lp5068
F0.0
aF0.0
aa(lp5069
F0.0
aF0.0
aaa(lp5070
(lp5071
F748.0
aF408.0
aa(lp5072
F0.0
aF0.0
aa(lp5073
F0.0
aF0.0
aa(lp5074
F0.0
aF0.0
aaaag13
(g17
S'\x02f\xc4\xa1r\x8fb@'
p5075
tp5076
Rp5077
ag13
(g17
S'\xc6&\x02\xc5\x98`\x87@'
p5078
tp5079
Rp5080
ag13
(g17
S'\xd3=\x8e\xe3\xfe\x90y@'
p5081
tp5082
Rp5083
ag13
(g17
S'\x95\xf9\xe6\x1e\xb0\x8fy@'
p5084
tp5085
Rp5086
ag13
(g17
S'\xcb\xd6UUsa>@'
p5087
tp5088
Rp5089
aI0
aI0
aI0
aI0
aI0
aa(lp5090
I00
aI00
a(lp5091
(lp5092
(lp5093
F150.0
aF408.0
aa(lp5094
F0.0
aF0.0
aa(lp5095
F0.0
aF0.0
aa(lp5096
F0.0
aF0.0
aaa(lp5097
(lp5098
F748.0
aF408.0
aa(lp5099
F0.0
aF0.0
aa(lp5100
F0.0
aF0.0
aa(lp5101
F0.0
aF0.0
aaaag13
(g17
S'\xcd\x1e\x96\xb8\n\x97b@'
p5102
tp5103
Rp5104
ag13
(g17
S',&\x92\x0bs_\x87@'
p5105
tp5106
Rp5107
ag13
(g17
S'#\xc1"\xcc\x12\x8by@'
p5108
tp5109
Rp5110
ag13
(g17
S'\xa4\xa0\xefR\xc6\x89y@'
p5111
tp5112
Rp5113
ag13
(g17
S'\xc9M\x10ldf>@'
p5114
tp5115
Rp5116
aI0
aI0
aI0
aI0
aI0
aa(lp5117
I00
aI00
a(lp5118
(lp5119
(lp5120
F150.0
aF408.0
aa(lp5121
F0.0
aF0.0
aa(lp5122
F0.0
aF0.0
aa(lp5123
F0.0
aF0.0
aaa(lp5124
(lp5125
F748.0
aF408.0
aa(lp5126
F0.0
aF0.0
aa(lp5127
F0.0
aF0.0
aa(lp5128
F0.0
aF0.0
aaaag13
(g17
S'\x9dC\x99\xab.\x9ab@'
p5129
tp5130
Rp5131
ag13
(g17
S'\x168\r\xd0\xae]\x87@'
p5132
tp5133
Rp5134
ag13
(g17
S'\xc5|\xedTa\x86y@'
p5135
tp5136
Rp5137
ag13
(g17
S'\xc5{\xaay`\x85y@'
p5138
tp5139
Rp5140
ag13
(g17
S'\x85\xac\x7fy\x89j>@'
p5141
tp5142
Rp5143
aI0
aI0
aI0
aI0
aI0
aa(lp5144
I00
aI00
a(lp5145
(lp5146
(lp5147
F149.0
aF408.0
aa(lp5148
F0.0
aF0.0
aa(lp5149
F0.0
aF0.0
aa(lp5150
F0.0
aF0.0
aaa(lp5151
(lp5152
F747.0
aF407.0
aa(lp5153
F0.0
aF0.0
aa(lp5154
F0.0
aF0.0
aa(lp5155
F0.0
aF0.0
aaaag13
(g17
S':;\xb3\x84;\x9cb@'
p5156
tp5157
Rp5158
ag13
(g17
S'3.$\xc7;\\\x87@'
p5159
tp5160
Rp5161
ag13
(g17
S'^\xd8\x8f\x9f"\x83y@'
p5162
tp5163
Rp5164
ag13
(g17
S'\xdb\x9csF\x8b\x82y@'
p5165
tp5166
Rp5167
ag13
(g17
S'<\xb2\xcc\x10\xbam>@'
p5168
tp5169
Rp5170
aI0
aI0
aI0
aI0
aI0
aa(lp5171
I00
aI00
a(lp5172
(lp5173
(lp5174
F149.0
aF407.0
aa(lp5175
F0.0
aF0.0
aa(lp5176
F0.0
aF0.0
aa(lp5177
F0.0
aF0.0
aaa(lp5178
(lp5179
F747.0
aF407.0
aa(lp5180
F0.0
aF0.0
aa(lp5181
F0.0
aF0.0
aa(lp5182
F0.0
aF0.0
aaaag13
(g17
S')\xf3\xcd=`\x9fb@'
p5183
tp5184
Rp5185
ag13
(g17
S'a"\x97\x99\xa2[\x87@'
p5186
tp5187
Rp5188
ag13
(g17
S'a\x0f\x0c\xe6=\x81y@'
p5189
tp5190
Rp5191
ag13
(g17
S'\xd3=\x8e\xe3\xfe\x80y@'
p5192
tp5193
Rp5194
ag13
(g17
S'\xadj\x13\x9c\xfao>@'
p5195
tp5196
Rp5197
aI0
aI0
aI0
aI0
aI0
aa(lp5198
I00
aI00
a(lp5199
(lp5200
(lp5201
F149.0
aF407.0
aa(lp5202
F0.0
aF0.0
aa(lp5203
F0.0
aF0.0
aa(lp5204
F0.0
aF0.0
aaa(lp5205
(lp5206
F747.0
aF407.0
aa(lp5207
F0.0
aF0.0
aa(lp5208
F0.0
aF0.0
aa(lp5209
F0.0
aF0.0
aaaag13
(g17
S'\x175\x03xG\xa4b@'
p5210
tp5211
Rp5212
ag13
(g17
S'^\x8eb\x0b\xea[\x87@'
p5213
tp5214
Rp5215
ag13
(g17
S'eG\xcb\x07Z\x80y@'
p5216
tp5217
Rp5218
ag13
(g17
S'\x8f\xd1}\x02?\x80y@'
p5219
tp5220
Rp5221
ag13
(g17
S'MT\x11 \x85q>@'
p5222
tp5223
Rp5224
aI0
aI0
aI0
aI0
aI0
aa(lp5225
I00
aI00
a(lp5226
(lp5227
(lp5228
F150.0
aF407.0
aa(lp5229
F0.0
aF0.0
aa(lp5230
F0.0
aF0.0
aa(lp5231
F0.0
aF0.0
aaa(lp5232
(lp5233
F747.0
aF407.0
aa(lp5234
F0.0
aF0.0
aa(lp5235
F0.0
aF0.0
aa(lp5236
F0.0
aF0.0
aaaag13
(g17
S'z\xd2\xf4\xa0.\xaab@'
p5237
tp5238
Rp5239
ag13
(g17
S'Sy\xa3\xe7\xb4\\\x87@'
p5240
tp5241
Rp5242
ag13
(g17
S'\x00\x00\x00\x00\x00\x80y@'
p5243
tp5244
Rp5245
ag13
(g17
S'r.\x82\xfd\xc0\x7fy@'
p5246
tp5247
Rp5248
ag13
(g17
S'\x97\xcan\xf8\xa1r>@'
p5249
tp5250
Rp5251
aI0
aI0
aI0
aI0
aI0
aa(lp5252
I00
aI00
a(lp5253
(lp5254
(lp5255
F150.0
aF407.0
aa(lp5256
F0.0
aF0.0
aa(lp5257
F0.0
aF0.0
aa(lp5258
F0.0
aF0.0
aaag5232
aag13
(g17
S'\xca|\xeb\x1f\x8c\xafb@'
p5259
tp5260
Rp5261
ag13
(g17
S'\xd0e\x10\xc7|]\x87@'
p5262
tp5263
Rp5264
ag13
(g17
S'\x87s\xdbz\xb3\x7fy@'
p5265
tp5266
Rp5267
ag13
(g17
S'\x19}\x18\x9f\x0e\x7fy@'
p5268
tp5269
Rp5270
ag13
(g17
S'+\x9a`\xb2\x8bs>@'
p5271
tp5272
Rp5273
aI0
aI0
aI0
aI0
aI0
aa.